MAGIC:
oat
045

CHECKSUM:
0x741b9b37

INSTRUCTION SET:
Thumb2

INSTRUCTION SET FEATURES:
none

DEX FILE COUNT:
1

EXECUTABLE OFFSET:
0x00004000

INTERPRETER TO INTERPRETER BRIDGE OFFSET:
0x00000000

INTERPRETER TO COMPILED CODE BRIDGE OFFSET:
0x00000000

JNI DLSYM LOOKUP OFFSET:
0x00000000

PORTABLE IMT CONFLICT TRAMPOLINE OFFSET:
0x00000000

PORTABLE RESOLUTION TRAMPOLINE OFFSET:
0x00000000

PORTABLE TO INTERPRETER BRIDGE OFFSET:
0x00000000

QUICK GENERIC JNI TRAMPOLINE OFFSET:
0x00000000

QUICK IMT CONFLICT TRAMPOLINE OFFSET:
0x00000000

QUICK RESOLUTION TRAMPOLINE OFFSET:
0x00000000

QUICK TO INTERPRETER BRIDGE OFFSET:
0x00000000

IMAGE PATCH DELTA:
-3776512 (0xffc66000)

IMAGE FILE LOCATION OAT CHECKSUM:
0x4d379fc9

IMAGE FILE LOCATION OAT BEGIN:
0x705da000

KEY VALUE STORE:
dex2oat-cmdline = --runtime-arg -classpath --runtime-arg  --instruction-set=arm --instruction-set-features=default --runtime-arg -Xrelocate --boot-image=/system/framework/boot.art --dex-file=/data/data/com.weidian.sample/files/superTinker/right/patch.apk --oat-fd=21 --oat-location=/data/data/com.weidian.sample/files/superTinker/right/patch.dex --runtime-arg -Xms64m --runtime-arg -Xmx512m
dex2oat-host = Arm
image-location = /data/dalvik-cache/arm/system@framework@boot.art
pic = false

SIZE:
25996

OatDexFile:
location: /data/data/com.weidian.sample/files/superTinker/right/patch.apk
checksum: 0x0b89ac64
0: Lcom/weidian/sample/MainActivity$Action; (offset=0x00002ac4) (type_idx=21) (StatusVerified) (OatClassSomeCompiled)
  0: void com.weidian.sample.MainActivity$Action.<clinit>() (dex_method_idx=22)
    DEX CODE:
      0x0000: sget-object  v0, Ljava/lang/Boolean; java.lang.Boolean.FALSE // field@21
      0x0002: invoke-virtual {v0}, boolean java.lang.Boolean.booleanValue() // method@90
      0x0005: move-result v0
      0x0006: if-eqz v0, +9
      0x0008: sget-object  v0, Ljava/io/PrintStream; java.lang.System.out // field@22
      0x000a: const-class v1, com.weidian.hack.Hack // type@17
      0x000c: invoke-virtual {v0, v1}, void java.io.PrintStream.println(java.lang.Object) // method@89
      0x000f: return-void
    OatMethodOffsets (offset=0x00000000)
      code_offset: 0x00000000 
      gc_map: (offset=0x00000000)
    OatQuickMethodHeader (offset=0x00000000)
      mapping_table: (offset=0x00000000)
      vmap_table: (offset=0x00000000)
    QuickMethodFrameInfo
      frame_size_in_bytes: 0
      core_spill_mask: 0x00000000 
      fp_spill_mask: 0x00000000 
    CODE: (code_offset=0x00000000 size_offset=0x00000000 size=0)
      NO CODE!
  1: void com.weidian.sample.MainActivity$Action.<init>() (dex_method_idx=23)
    DEX CODE:
      0x0000: invoke-direct {v0}, void java.lang.Object.<init>() // method@94
      0x0003: return-void
    OatMethodOffsets (offset=0x00002ad0)
      code_offset: 0x0000401d 
      gc_map: (offset=0x00002b68)
    OatQuickMethodHeader (offset=0x00004000)
      mapping_table: (offset=0x00002fde)
      vmap_table: (offset=0x00003310)
      v0/r5, v65534/r6, v65535/r15
    QuickMethodFrameInfo
      frame_size_in_bytes: 32
      core_spill_mask: 0x00008060 (r5, r6, r15)
      fp_spill_mask: 0x00000000 
    CODE: (code_offset=0x0000401d size_offset=0x00004018 size=60)...
      0x0000401c: f5bd5c00	subs    r12, sp, #8192
      0x00004020: f8dcc000	ldr.w   r12, [r12, #0]
      suspend point dex PC: 0x0000
      GC map objects:  v0 (r5)
      0x00004024: e92d4060	push    {r5, r6, lr}
      0x00004028: b085    	sub     sp, sp, #20
      0x0000402a: 1c06    	mov     r6, r0
      0x0000402c: 9000    	str     r0, [sp, #0]
      0x0000402e: 1c0d    	mov     r5, r1
      0x00004030: f24e0e75	movw    lr, #57461
      0x00004034: f2c72e06	movt    lr, #29190
      0x00004038: f6467058	movw    r0, #28504
      0x0000403c: f6c670d3	movt    r0, #28627
      0x00004040: 1c29    	mov     r1, r5
      0x00004042: 47f0    	blx     lr
      suspend point dex PC: 0x0000
      GC map objects:  v0 (r5)
      0x00004044: 3c01    	subs    r4, #1
      0x00004046: f0008003	beq.w   +6 (0x00004050)
      0x0000404a: b005    	add     sp, sp, #20
      0x0000404c: e8bd8060	pop     {r5, r6, pc}
      0x00004050: f8d9e230	ldr.w   lr, [r9, #560]  ; pTestSuspend
      0x00004054: 47f0    	blx     lr
      suspend point dex PC: 0x0003
      0x00004056: e7f8    	b       -16 (0x0000404a)
1: Lcom/weidian/sample/MainActivity; (offset=0x00002ad4) (type_idx=22) (StatusRetryVerificationAtRuntime) (OatClassSomeCompiled)
  0: void com.weidian.sample.MainActivity.<clinit>() (dex_method_idx=24)
    DEX CODE:
      0x0000: sget-object  v0, Ljava/lang/Boolean; java.lang.Boolean.FALSE // field@21
      0x0002: invoke-virtual {v0}, boolean java.lang.Boolean.booleanValue() // method@90
      0x0005: move-result v0
      0x0006: if-eqz v0, +9
      0x0008: sget-object  v0, Ljava/io/PrintStream; java.lang.System.out // field@22
      0x000a: const-class v1, com.weidian.hack.Hack // type@17
      0x000c: invoke-virtual {v0, v1}, void java.io.PrintStream.println(java.lang.Object) // method@89
      0x000f: return-void
    OatMethodOffsets (offset=0x00000000)
      code_offset: 0x00000000 
      gc_map: (offset=0x00000000)
    OatQuickMethodHeader (offset=0x00000000)
      mapping_table: (offset=0x00000000)
      vmap_table: (offset=0x00000000)
    QuickMethodFrameInfo
      frame_size_in_bytes: 0
      core_spill_mask: 0x00000000 
      fp_spill_mask: 0x00000000 
    CODE: (code_offset=0x00000000 size_offset=0x00000000 size=0)
      NO CODE!
  1: void com.weidian.sample.MainActivity.<init>() (dex_method_idx=25)
    DEX CODE:
      0x0000: invoke-direct {v1}, void android.app.Activity.<init>() // method@0
      0x0003: new-instance v0, com.weidian.sample.MainActivity$1 // type@19
      0x0005: invoke-direct {v0, v1}, void com.weidian.sample.MainActivity$1.<init>(com.weidian.sample.MainActivity) // method@19
      0x0008: iput-object v0, v1, Landroid/content/ServiceConnection; com.weidian.sample.MainActivity.conn // field@2
      0x000a: return-void
    OatMethodOffsets (offset=0x00002ae4)
      code_offset: 0x00004075 
      gc_map: (offset=0x00002b72)
    OatQuickMethodHeader (offset=0x00004058)
      mapping_table: (offset=0x00002fe6)
      vmap_table: (offset=0x00003314)
      v1/r5, v65534/r6, v0/r7, v65535/r15
    QuickMethodFrameInfo
      frame_size_in_bytes: 48
      core_spill_mask: 0x000080e0 (r5, r6, r7, r15)
      fp_spill_mask: 0x00000000 
    CODE: (code_offset=0x00004075 size_offset=0x00004070 size=100)...
      0x00004074: f5bd5c00	subs    r12, sp, #8192
      0x00004078: f8dcc000	ldr.w   r12, [r12, #0]
      suspend point dex PC: 0x0000
      GC map objects:  v1 (r5)
      0x0000407c: e92d40e0	push    {r5, r6, r7, lr}
      0x00004080: b088    	sub     sp, sp, #32
      0x00004082: 1c06    	mov     r6, r0
      0x00004084: 9000    	str     r0, [sp, #0]
      0x00004086: 1c0d    	mov     r5, r1
      0x00004088: f64d0e6d	movw    lr, #55405
      0x0000408c: f2c72ef1	movt    lr, #29425
      0x00004090: f6475048	movw    r0, #32072
      0x00004094: f6c670de	movt    r0, #28638
      0x00004098: 1c29    	mov     r1, r5
      0x0000409a: 47f0    	blx     lr
      suspend point dex PC: 0x0000
      GC map objects:  v1 (r5)
      0x0000409c: f8d9e130	ldr.w   lr, [r9, #304]  ; pAllocObjectWithAccessCheck
      0x000040a0: 1c31    	mov     r1, r6
      0x000040a2: 2013    	movs    r0, #19
      0x000040a4: 47f0    	blx     lr
      suspend point dex PC: 0x0003
      GC map objects:  v1 (r5)
      0x000040a6: f8d9e21c	ldr.w   lr, [r9, #540]  ; pInvokeDirectTrampolineWithAccessCheck
      0x000040aa: 1c07    	mov     r7, r0
      0x000040ac: 2013    	movs    r0, #19
      0x000040ae: 1c39    	mov     r1, r7
      0x000040b0: 1c2a    	mov     r2, r5
      0x000040b2: 47f0    	blx     lr
      suspend point dex PC: 0x0005
      GC map objects:  v0 (r7), v1 (r5)
      0x000040b4: f8c57108	str.w   r7, [r5, #264]
      0x000040b8: b11f    	cbz     r7, +6 (0x000040c2)
      0x000040ba: f8d92078	ldr.w   r2, [r9, #120]  ; card_table
      0x000040be: 09eb    	lsrs    r3, r5, #7
      0x000040c0: 54d2    	strb    r2, [r2, r3]
      0x000040c2: 3c01    	subs    r4, #1
      0x000040c4: f0008003	beq.w   +6 (0x000040ce)
      0x000040c8: b008    	add     sp, sp, #32
      0x000040ca: e8bd80e0	pop     {r5, r6, r7, pc}
      0x000040ce: f8d9e230	ldr.w   lr, [r9, #560]  ; pTestSuspend
      0x000040d2: 47f0    	blx     lr
      suspend point dex PC: 0x000a
      0x000040d4: e7f8    	b       -16 (0x000040c8)
      0x000040d6: 0000    	lsls    r0, r0, #0
  2: void com.weidian.sample.MainActivity.initBroadcast() (dex_method_idx=34)
    DEX CODE:
      0x0000: const-string v3, "com.weidian.sample.DynamicReceiver" // string@93
      0x0002: invoke-static {v3}, java.lang.Class java.lang.Class.forName(java.lang.String) // method@91
      0x0005: move-result-object v2
      0x0006: invoke-virtual {v2}, java.lang.Object java.lang.Class.newInstance() // method@92
      0x0009: move-result-object v3
      0x000a: check-cast v3, android.content.BroadcastReceiver // type@2
      0x000c: iput-object v3, v4, Landroid/content/BroadcastReceiver; com.weidian.sample.MainActivity.receiver // field@7
      0x000e: new-instance v1, android.content.IntentFilter // type@6
      0x0010: invoke-direct {v1}, void android.content.IntentFilter.<init>() // method@9
      0x0013: const-string v3, "dynamic" // string@104
      0x0015: invoke-virtual {v1, v3}, void android.content.IntentFilter.addAction(java.lang.String) // method@10
      0x0018: iget-object v3, v4, Landroid/content/BroadcastReceiver; com.weidian.sample.MainActivity.receiver // field@7
      0x001a: invoke-virtual {v4, v3, v1}, android.content.Intent com.weidian.sample.MainActivity.registerReceiver(android.content.BroadcastReceiver, android.content.IntentFilter) // method@47
      0x001d: return-void
      0x001e: move-exception v0
      0x001f: invoke-virtual {v0}, void java.lang.Exception.printStackTrace() // method@93
      0x0022: goto -20
    OatMethodOffsets (offset=0x00002ae8)
      code_offset: 0x000040f5 
      gc_map: (offset=0x00002b80)
    OatQuickMethodHeader (offset=0x000040d8)
      mapping_table: (offset=0x00002ff2)
      vmap_table: (offset=0x00003319)
      v65534/r5, v3/r6, v1/r7, v4/r8, v0/r10, v2/r11, v65535/r15
    QuickMethodFrameInfo
      frame_size_in_bytes: 64
      core_spill_mask: 0x00008de0 (r5, r6, r7, r8, r10, r11, r15)
      fp_spill_mask: 0x00000000 
    CODE: (code_offset=0x000040f5 size_offset=0x000040f0 size=304)...
      0x000040f4: f5bd5c00	subs    r12, sp, #8192
      0x000040f8: f8dcc000	ldr.w   r12, [r12, #0]
      suspend point dex PC: 0x0000
      GC map objects:  v4 (r8)
      0x000040fc: e92d4de0	push    {r5, r6, r7, r8, r10, r11, lr}
      0x00004100: b089    	sub     sp, sp, #36
      0x00004102: 1c05    	mov     r5, r0
      0x00004104: 9000    	str     r0, [sp, #0]
      0x00004106: 4688    	mov     r8, r1
      0x00004108: 68a8    	ldr     r0, [r5, #8]
      0x0000410a: 6940    	ldr     r0, [r0, #20]
      0x0000410c: f8d00180	ldr.w   r0, [r0, #384]
      0x00004110: 2800    	cmp     r0, #0
      0x00004112: d06a    	beq     +212 (0x000041ea)
      0x00004114: 1c06    	mov     r6, r0
      0x00004116: f24e1e5d	movw    lr, #57693
      0x0000411a: f2c72e0c	movt    lr, #29196
      0x0000411e: f64a1008	movw    r0, #43272
      0x00004122: f6c670da	movt    r0, #28634
      0x00004126: 1c31    	mov     r1, r6
      0x00004128: 47f0    	blx     lr
      suspend point dex PC: 0x0002
      GC map objects:  v3 (r6), v4 (r8)
      0x0000412a: 4683    	mov     r11, r0
      0x0000412c: f2426e45	movw    lr, #9797
      0x00004130: f2c72e0d	movt    lr, #29197
      0x00004134: f24b7048	movw    r0, #46920
      0x00004138: f6c670da	movt    r0, #28634
      0x0000413c: 4659    	mov     r1, r11
      0x0000413e: f8d1c000	ldr.w   r12, [r1, #0]
      suspend point dex PC: 0x0006
      GC map objects:  v2 (r11), v3 (r6), v4 (r8)
      0x00004142: 47f0    	blx     lr
      suspend point dex PC: 0x0006
      GC map objects:  v2 (r11), v3 (r6), v4 (r8)
      0x00004144: 1c06    	mov     r6, r0
      0x00004146: 1c29    	mov     r1, r5
      0x00004148: 690a    	ldr     r2, [r1, #16]
      0x0000414a: 6952    	ldr     r2, [r2, #20]
      0x0000414c: 2a00    	cmp     r2, #0
      0x0000414e: d052    	beq     +164 (0x000041f6)
      0x00004150: 1c30    	mov     r0, r6
      0x00004152: 2800    	cmp     r0, #0
      0x00004154: d155    	bne     +170 (0x00004202)
      0x00004156: f8c8611c	str.w   r6, [r8, #284]
      suspend point dex PC: 0x000c
      GC map objects:  v2 (r11), v3 (r6), v4 (r8)
      0x0000415a: b126    	cbz     r6, +8 (0x00004166)
      0x0000415c: f8d90078	ldr.w   r0, [r9, #120]  ; card_table
      0x00004160: ea4f11d8	mov.w   r1, r8, lsr #7
      0x00004164: 5440    	strb    r0, [r0, r1]
      0x00004166: f8d9e12c	ldr.w   lr, [r9, #300]  ; pAllocObjectInitialized
      0x0000416a: 1c29    	mov     r1, r5
      0x0000416c: f6472008	movw    r0, #31240
      0x00004170: f2c70048	movt    r0, #28744
      0x00004174: 47f0    	blx     lr
      suspend point dex PC: 0x000e
      GC map objects:  v4 (r8)
      0x00004176: 1c07    	mov     r7, r0
      0x00004178: f24e5e6d	movw    lr, #58733
      0x0000417c: f2c73e06	movt    lr, #29446
      0x00004180: f64d6008	movw    r0, #56840
      0x00004184: f6c670e1	movt    r0, #28641
      0x00004188: 1c39    	mov     r1, r7
      0x0000418a: 47f0    	blx     lr
      suspend point dex PC: 0x0010
      GC map objects:  v1 (r7), v4 (r8)
      0x0000418c: 68a8    	ldr     r0, [r5, #8]
      0x0000418e: 6940    	ldr     r0, [r0, #20]
      0x00004190: f8d001ac	ldr.w   r0, [r0, #428]
      0x00004194: b3d8    	cbz     r0, +118 (0x0000420e)
      0x00004196: 1c06    	mov     r6, r0
      0x00004198: f24f4edd	movw    lr, #62685
      0x0000419c: f2c73e06	movt    lr, #29446
      0x000041a0: f24e00a8	movw    r0, #57512
      0x000041a4: f6c670e1	movt    r0, #28641
      0x000041a8: 1c39    	mov     r1, r7
      0x000041aa: 1c32    	mov     r2, r6
      0x000041ac: 47f0    	blx     lr
      suspend point dex PC: 0x0015
      GC map objects:  v1 (r7), v3 (r6), v4 (r8)
      0x000041ae: f8d8611c	ldr.w   r6, [r8, #284]
      0x000041b2: 4641    	mov     r1, r8
      0x000041b4: 6808    	ldr     r0, [r1, #0]
      0x000041b6: 1c32    	mov     r2, r6
      0x000041b8: 1c3b    	mov     r3, r7
      0x000041ba: f8d002e0	ldr.w   r0, [r0, #736]
      0x000041be: f8d0e02c	ldr.w   lr, [r0, #44]
      0x000041c2: 47f0    	blx     lr
      suspend point dex PC: 0x001a
      GC map objects:  v1 (r7), v3 (r6), v4 (r8)
      0x000041c4: 3c01    	subs    r4, #1
      0x000041c6: f0008028	beq.w   +80 (0x0000421a)
      0x000041ca: b009    	add     sp, sp, #36
      0x000041cc: e8bd8de0	pop     {r5, r6, r7, r8, r10, r11, pc}
      catch entry dex PC: 0x001e
      0x000041d0: f8d9a07c	ldr.w   r10, [r9, #124]  ; exception
      0x000041d4: 2200    	movs    r2, #0
      0x000041d6: f8c9207c	str.w   r2, [r9, #124]
      0x000041da: 4651    	mov     r1, r10
      0x000041dc: 6808    	ldr     r0, [r1, #0]
      0x000041de: f8d001bc	ldr.w   r0, [r0, #444]
      0x000041e2: f8d0e02c	ldr.w   lr, [r0, #44]
      0x000041e6: 47f0    	blx     lr
      suspend point dex PC: 0x001f
      GC map objects:  v0 (r10), v4 (r8)
      0x000041e8: e7bd    	b       -134 (0x00004166)
      0x000041ea: f8d9e150	ldr.w   lr, [r9, #336]  ; pResolveString
      0x000041ee: 1c28    	mov     r0, r5
      0x000041f0: 215d    	movs    r1, #93
      0x000041f2: 47f0    	blx     lr
      suspend point dex PC: 0x0000
      GC map objects:  v4 (r8)
      0x000041f4: e78e    	b       -228 (0x00004114)
      0x000041f6: f8d9e14c	ldr.w   lr, [r9, #332]  ; pInitializeType
      0x000041fa: 2002    	movs    r0, #2
      0x000041fc: 47f0    	blx     lr
      suspend point dex PC: 0x000a
      GC map objects:  v2 (r11), v3 (r6), v4 (r8)
      0x000041fe: 1c02    	mov     r2, r0
      0x00004200: e7a6    	b       -180 (0x00004150)
      0x00004202: 6801    	ldr     r1, [r0, #0]
      0x00004204: f8d9e140	ldr.w   lr, [r9, #320]  ; pCheckCast
      0x00004208: 1c10    	mov     r0, r2
      0x0000420a: 47f0    	blx     lr
      suspend point dex PC: 0x000a
      GC map objects:  v2 (r11), v3 (r6), v4 (r8)
      0x0000420c: e7a3    	b       -186 (0x00004156)
      0x0000420e: f8d9e150	ldr.w   lr, [r9, #336]  ; pResolveString
      0x00004212: 1c28    	mov     r0, r5
      0x00004214: 2168    	movs    r1, #104
      0x00004216: 47f0    	blx     lr
      suspend point dex PC: 0x0013
      GC map objects:  v1 (r7), v4 (r8)
      0x00004218: e7bd    	b       -134 (0x00004196)
      0x0000421a: f8d9e230	ldr.w   lr, [r9, #560]  ; pTestSuspend
      0x0000421e: 47f0    	blx     lr
      suspend point dex PC: 0x001d
      0x00004220: e7d3    	b       -90 (0x000041ca)
      0x00004222: 0000    	lsls    r0, r0, #0
  3: void com.weidian.sample.MainActivity.initView() (dex_method_idx=35)
    DEX CODE:
      0x0000: const v0, #+2131624032
      0x0003: invoke-virtual {v1, v0}, android.view.View com.weidian.sample.MainActivity.findViewById(int) // method@30
      0x0006: move-result-object v0
      0x0007: check-cast v0, android.widget.TextView // type@16
      0x0009: iput-object v0, v1, Landroid/widget/TextView; com.weidian.sample.MainActivity.show // field@9
      0x000b: const v0, #+2131624021
      0x000e: invoke-virtual {v1, v0}, android.view.View com.weidian.sample.MainActivity.findViewById(int) // method@30
      0x0011: move-result-object v0
      0x0012: check-cast v0, android.widget.Button // type@14
      0x0014: iput-object v0, v1, Landroid/widget/Button; com.weidian.sample.MainActivity.testAssets // field@11
      0x0016: const v0, #+2131624022
      0x0019: invoke-virtual {v1, v0}, android.view.View com.weidian.sample.MainActivity.findViewById(int) // method@30
      0x001c: move-result-object v0
      0x001d: check-cast v0, android.widget.Button // type@14
      0x001f: iput-object v0, v1, Landroid/widget/Button; com.weidian.sample.MainActivity.testRaw // field@14
      0x0021: const v0, #+2131624023
      0x0024: invoke-virtual {v1, v0}, android.view.View com.weidian.sample.MainActivity.findViewById(int) // method@30
      0x0027: move-result-object v0
      0x0028: check-cast v0, android.widget.Button // type@14
      0x002a: iput-object v0, v1, Landroid/widget/Button; com.weidian.sample.MainActivity.testJni // field@13
      0x002c: const v0, #+2131624024
      0x002f: invoke-virtual {v1, v0}, android.view.View com.weidian.sample.MainActivity.findViewById(int) // method@30
      0x0032: move-result-object v0
      0x0033: check-cast v0, android.widget.Button // type@14
      0x0035: iput-object v0, v1, Landroid/widget/Button; com.weidian.sample.MainActivity.testString // field@15
      0x0037: const v0, #+2131624025
      0x003a: invoke-virtual {v1, v0}, android.view.View com.weidian.sample.MainActivity.findViewById(int) // method@30
      0x003d: move-result-object v0
      0x003e: check-cast v0, android.widget.Button // type@14
      0x0040: iput-object v0, v1, Landroid/widget/Button; com.weidian.sample.MainActivity.testStringArray // field@16
      0x0042: const v0, #+2131624026
      0x0045: invoke-virtual {v1, v0}, android.view.View com.weidian.sample.MainActivity.findViewById(int) // method@30
      0x0048: move-result-object v0
      0x0049: check-cast v0, android.widget.Button // type@14
      0x004b: iput-object v0, v1, Landroid/widget/Button; com.weidian.sample.MainActivity.testImageView // field@12
      0x004d: const v0, #+2131624030
      0x0050: invoke-virtual {v1, v0}, android.view.View com.weidian.sample.MainActivity.findViewById(int) // method@30
      0x0053: move-result-object v0
      0x0054: check-cast v0, android.widget.Button // type@14
      0x0056: iput-object v0, v1, Landroid/widget/Button; com.weidian.sample.MainActivity.secondActivity // field@8
      0x0058: const v0, #+2131624031
      0x005b: invoke-virtual {v1, v0}, android.view.View com.weidian.sample.MainActivity.findViewById(int) // method@30
      0x005e: move-result-object v0
      0x005f: check-cast v0, android.widget.Button // type@14
      0x0061: iput-object v0, v1, Landroid/widget/Button; com.weidian.sample.MainActivity.thirdActivity // field@18
      0x0063: iget-object v0, v1, Landroid/widget/Button; com.weidian.sample.MainActivity.testAssets // field@11
      0x0065: invoke-virtual {v0, v1}, void android.widget.Button.setOnClickListener(android.view.View$OnClickListener) // method@16
      0x0068: iget-object v0, v1, Landroid/widget/Button; com.weidian.sample.MainActivity.testRaw // field@14
      0x006a: invoke-virtual {v0, v1}, void android.widget.Button.setOnClickListener(android.view.View$OnClickListener) // method@16
      0x006d: iget-object v0, v1, Landroid/widget/Button; com.weidian.sample.MainActivity.testJni // field@13
      0x006f: invoke-virtual {v0, v1}, void android.widget.Button.setOnClickListener(android.view.View$OnClickListener) // method@16
      0x0072: iget-object v0, v1, Landroid/widget/Button; com.weidian.sample.MainActivity.testString // field@15
      0x0074: invoke-virtual {v0, v1}, void android.widget.Button.setOnClickListener(android.view.View$OnClickListener) // method@16
      0x0077: iget-object v0, v1, Landroid/widget/Button; com.weidian.sample.MainActivity.testStringArray // field@16
      0x0079: invoke-virtual {v0, v1}, void android.widget.Button.setOnClickListener(android.view.View$OnClickListener) // method@16
      0x007c: iget-object v0, v1, Landroid/widget/Button; com.weidian.sample.MainActivity.testImageView // field@12
      0x007e: invoke-virtual {v0, v1}, void android.widget.Button.setOnClickListener(android.view.View$OnClickListener) // method@16
      0x0081: iget-object v0, v1, Landroid/widget/Button; com.weidian.sample.MainActivity.secondActivity // field@8
      0x0083: invoke-virtual {v0, v1}, void android.widget.Button.setOnClickListener(android.view.View$OnClickListener) // method@16
      0x0086: iget-object v0, v1, Landroid/widget/Button; com.weidian.sample.MainActivity.thirdActivity // field@18
      0x0088: invoke-virtual {v0, v1}, void android.widget.Button.setOnClickListener(android.view.View$OnClickListener) // method@16
      0x008b: const v0, #+2131624020
      0x008e: invoke-virtual {v1, v0}, android.view.View com.weidian.sample.MainActivity.findViewById(int) // method@30
      0x0091: move-result-object v0
      0x0092: check-cast v0, android.widget.TextView // type@16
      0x0094: iput-object v0, v1, Landroid/widget/TextView; com.weidian.sample.MainActivity.textViewTestString // field@17
      0x0096: const v0, #+2131624019
      0x0099: invoke-virtual {v1, v0}, android.view.View com.weidian.sample.MainActivity.findViewById(int) // method@30
      0x009c: move-result-object v0
      0x009d: check-cast v0, android.widget.ImageView // type@15
      0x009f: iput-object v0, v1, Landroid/widget/ImageView; com.weidian.sample.MainActivity.imageViewTestImage // field@3
      0x00a1: const v0, #+2131624028
      0x00a4: invoke-virtual {v1, v0}, android.view.View com.weidian.sample.MainActivity.findViewById(int) // method@30
      0x00a7: move-result-object v0
      0x00a8: check-cast v0, android.widget.Button // type@14
      0x00aa: iput-object v0, v1, Landroid/widget/Button; com.weidian.sample.MainActivity.loadPatch // field@4
      0x00ac: iget-object v0, v1, Landroid/widget/Button; com.weidian.sample.MainActivity.loadPatch // field@4
      0x00ae: invoke-virtual {v0, v1}, void android.widget.Button.setOnClickListener(android.view.View$OnClickListener) // method@16
      0x00b1: const v0, #+2131624016
      0x00b4: invoke-virtual {v1, v0}, android.view.View com.weidian.sample.MainActivity.findViewById(int) // method@30
      0x00b7: move-result-object v0
      0x00b8: check-cast v0, android.widget.Button // type@14
      0x00ba: iput-object v0, v1, Landroid/widget/Button; com.weidian.sample.MainActivity.lock // field@5
      0x00bc: iget-object v0, v1, Landroid/widget/Button; com.weidian.sample.MainActivity.lock // field@5
      0x00be: invoke-virtual {v0, v1}, void android.widget.Button.setOnClickListener(android.view.View$OnClickListener) // method@16
      0x00c1: const v0, #+2131624017
      0x00c4: invoke-virtual {v1, v0}, android.view.View com.weidian.sample.MainActivity.findViewById(int) // method@30
      0x00c7: move-result-object v0
      0x00c8: check-cast v0, android.widget.Button // type@14
      0x00ca: iput-object v0, v1, Landroid/widget/Button; com.weidian.sample.MainActivity.unlock // field@19
      0x00cc: iget-object v0, v1, Landroid/widget/Button; com.weidian.sample.MainActivity.unlock // field@19
      0x00ce: invoke-virtual {v0, v1}, void android.widget.Button.setOnClickListener(android.view.View$OnClickListener) // method@16
      0x00d1: const v0, #+2131624018
      0x00d4: invoke-virtual {v1, v0}, android.view.View com.weidian.sample.MainActivity.findViewById(int) // method@30
      0x00d7: move-result-object v0
      0x00d8: check-cast v0, android.widget.Button // type@14
      0x00da: iput-object v0, v1, Landroid/widget/Button; com.weidian.sample.MainActivity.write // field@20
      0x00dc: iget-object v0, v1, Landroid/widget/Button; com.weidian.sample.MainActivity.write // field@20
      0x00de: invoke-virtual {v0, v1}, void android.widget.Button.setOnClickListener(android.view.View$OnClickListener) // method@16
      0x00e1: const v0, #+2131624029
      0x00e4: invoke-virtual {v1, v0}, android.view.View com.weidian.sample.MainActivity.findViewById(int) // method@30
      0x00e7: move-result-object v0
      0x00e8: check-cast v0, android.widget.Button // type@14
      0x00ea: iput-object v0, v1, Landroid/widget/Button; com.weidian.sample.MainActivity.process // field@6
      0x00ec: iget-object v0, v1, Landroid/widget/Button; com.weidian.sample.MainActivity.process // field@6
      0x00ee: invoke-virtual {v0, v1}, void android.widget.Button.setOnClickListener(android.view.View$OnClickListener) // method@16
      0x00f1: const v0, #+2131624027
      0x00f4: invoke-virtual {v1, v0}, android.view.View com.weidian.sample.MainActivity.findViewById(int) // method@30
      0x00f7: move-result-object v0
      0x00f8: check-cast v0, android.widget.Button // type@14
      0x00fa: iput-object v0, v1, Landroid/widget/Button; com.weidian.sample.MainActivity.testAdd // field@10
      0x00fc: iget-object v0, v1, Landroid/widget/Button; com.weidian.sample.MainActivity.testAdd // field@10
      0x00fe: invoke-virtual {v0, v1}, void android.widget.Button.setOnClickListener(android.view.View$OnClickListener) // method@16
      0x0101: return-void
    OatMethodOffsets (offset=0x00002aec)
      code_offset: 0x00004245 
      gc_map: (offset=0x00002bb1)
    OatQuickMethodHeader (offset=0x00004228)
      mapping_table: (offset=0x00003015)
      vmap_table: (offset=0x00003321)
      v0/r5, v1/r6, v65534/r7, v65535/r15
    QuickMethodFrameInfo
      frame_size_in_bytes: 48
      core_spill_mask: 0x000080e0 (r5, r6, r7, r15)
      fp_spill_mask: 0x00000000 
    CODE: (code_offset=0x00004245 size_offset=0x00004240 size=1804)...
      0x00004244: f5bd5c00	subs    r12, sp, #8192
      0x00004248: f8dcc000	ldr.w   r12, [r12, #0]
      suspend point dex PC: 0x0000
      GC map objects:  v1 (r6)
      0x0000424c: e92d40e0	push    {r5, r6, r7, lr}
      0x00004250: b088    	sub     sp, sp, #32
      0x00004252: 1c07    	mov     r7, r0
      0x00004254: 9000    	str     r0, [sp, #0]
      0x00004256: 1c0e    	mov     r6, r1
      0x00004258: f2400560	movw    r5, #96
      0x0000425c: f6c7750e	movt    r5, #32526
      0x00004260: 1c31    	mov     r1, r6
      0x00004262: 6808    	ldr     r0, [r1, #0]
      0x00004264: 1c2a    	mov     r2, r5
      0x00004266: f8d003d8	ldr.w   r0, [r0, #984]
      0x0000426a: f8d0e02c	ldr.w   lr, [r0, #44]
      0x0000426e: 47f0    	blx     lr
      suspend point dex PC: 0x0003
      GC map objects:  v1 (r6)
      0x00004270: 1c05    	mov     r5, r0
      0x00004272: 1c39    	mov     r1, r7
      0x00004274: 690a    	ldr     r2, [r1, #16]
      0x00004276: 6cd2    	ldr     r2, [r2, #76]
      0x00004278: 2a00    	cmp     r2, #0
      0x0000427a: f00082a9	beq.w   +1362 (0x000047d0)
      0x0000427e: 1c28    	mov     r0, r5
      0x00004280: b118    	cbz     r0, +6 (0x0000428a)
      0x00004282: 6801    	ldr     r1, [r0, #0]
      0x00004284: 4291    	cmp     r1, r2
      0x00004286: f04082a9	bne.w   +1362 (0x000047dc)
      0x0000428a: f8c65124	str.w   r5, [r6, #292]
      0x0000428e: b11d    	cbz     r5, +6 (0x00004298)
      0x00004290: f8d92078	ldr.w   r2, [r9, #120]  ; card_table
      0x00004294: 09f3    	lsrs    r3, r6, #7
      0x00004296: 54d2    	strb    r2, [r2, r3]
      0x00004298: f2400555	movw    r5, #85
      0x0000429c: f6c7750e	movt    r5, #32526
      0x000042a0: 1c31    	mov     r1, r6
      0x000042a2: 6808    	ldr     r0, [r1, #0]
      0x000042a4: 1c2a    	mov     r2, r5
      0x000042a6: f8d003d8	ldr.w   r0, [r0, #984]
      0x000042aa: f8d0e02c	ldr.w   lr, [r0, #44]
      0x000042ae: 47f0    	blx     lr
      suspend point dex PC: 0x000e
      GC map objects:  v1 (r6)
      0x000042b0: 1c05    	mov     r5, r0
      0x000042b2: 1c39    	mov     r1, r7
      0x000042b4: 690a    	ldr     r2, [r1, #16]
      0x000042b6: 6c52    	ldr     r2, [r2, #68]
      0x000042b8: 2a00    	cmp     r2, #0
      0x000042ba: f0008294	beq.w   +1320 (0x000047e6)
      0x000042be: 1c28    	mov     r0, r5
      0x000042c0: b118    	cbz     r0, +6 (0x000042ca)
      0x000042c2: 6801    	ldr     r1, [r0, #0]
      0x000042c4: 4291    	cmp     r1, r2
      0x000042c6: f0408294	bne.w   +1320 (0x000047f2)
      0x000042ca: f8c6512c	str.w   r5, [r6, #300]
      0x000042ce: b125    	cbz     r5, +8 (0x000042da)
      0x000042d0: f8d9c078	ldr.w   r12, [r9, #120]  ; card_table
      0x000042d4: 09f0    	lsrs    r0, r6, #7
      0x000042d6: f80cc000	strb    r12, [r12, r0]
      0x000042da: f2400556	movw    r5, #86
      0x000042de: f6c7750e	movt    r5, #32526
      0x000042e2: 1c31    	mov     r1, r6
      0x000042e4: 6808    	ldr     r0, [r1, #0]
      0x000042e6: 1c2a    	mov     r2, r5
      0x000042e8: f8d003d8	ldr.w   r0, [r0, #984]
      0x000042ec: f8d0e02c	ldr.w   lr, [r0, #44]
      0x000042f0: 47f0    	blx     lr
      suspend point dex PC: 0x0019
      GC map objects:  v1 (r6)
      0x000042f2: 1c05    	mov     r5, r0
      0x000042f4: 1c39    	mov     r1, r7
      0x000042f6: 690a    	ldr     r2, [r1, #16]
      0x000042f8: 6c52    	ldr     r2, [r2, #68]
      0x000042fa: 2a00    	cmp     r2, #0
      0x000042fc: f000827e	beq.w   +1276 (0x000047fc)
      0x00004300: 1c28    	mov     r0, r5
      0x00004302: b118    	cbz     r0, +6 (0x0000430c)
      0x00004304: 6801    	ldr     r1, [r0, #0]
      0x00004306: 4291    	cmp     r1, r2
      0x00004308: f040827e	bne.w   +1276 (0x00004808)
      0x0000430c: f8c65138	str.w   r5, [r6, #312]
      0x00004310: b11d    	cbz     r5, +6 (0x0000431a)
      0x00004312: f8d91078	ldr.w   r1, [r9, #120]  ; card_table
      0x00004316: 09f2    	lsrs    r2, r6, #7
      0x00004318: 5489    	strb    r1, [r1, r2]
      0x0000431a: f2400557	movw    r5, #87
      0x0000431e: f6c7750e	movt    r5, #32526
      0x00004322: 1c31    	mov     r1, r6
      0x00004324: 6808    	ldr     r0, [r1, #0]
      0x00004326: 1c2a    	mov     r2, r5
      0x00004328: f8d003d8	ldr.w   r0, [r0, #984]
      0x0000432c: f8d0e02c	ldr.w   lr, [r0, #44]
      0x00004330: 47f0    	blx     lr
      suspend point dex PC: 0x0024
      GC map objects:  v1 (r6)
      0x00004332: 1c05    	mov     r5, r0
      0x00004334: 1c39    	mov     r1, r7
      0x00004336: 690a    	ldr     r2, [r1, #16]
      0x00004338: 6c52    	ldr     r2, [r2, #68]
      0x0000433a: 2a00    	cmp     r2, #0
      0x0000433c: f0008269	beq.w   +1234 (0x00004812)
      0x00004340: 1c28    	mov     r0, r5
      0x00004342: b118    	cbz     r0, +6 (0x0000434c)
      0x00004344: 6801    	ldr     r1, [r0, #0]
      0x00004346: 4291    	cmp     r1, r2
      0x00004348: f0408269	bne.w   +1234 (0x0000481e)
      0x0000434c: f8c65134	str.w   r5, [r6, #308]
      0x00004350: b12d    	cbz     r5, +10 (0x0000435e)
      0x00004352: f8d93078	ldr.w   r3, [r9, #120]  ; card_table
      0x00004356: ea4f1cd6	mov.w   r12, r6, lsr #7
      0x0000435a: f803300c	strb    r3, [r3, r12]
      0x0000435e: f2400558	movw    r5, #88
      0x00004362: f6c7750e	movt    r5, #32526
      0x00004366: 1c31    	mov     r1, r6
      0x00004368: 6808    	ldr     r0, [r1, #0]
      0x0000436a: 1c2a    	mov     r2, r5
      0x0000436c: f8d003d8	ldr.w   r0, [r0, #984]
      0x00004370: f8d0e02c	ldr.w   lr, [r0, #44]
      0x00004374: 47f0    	blx     lr
      suspend point dex PC: 0x002f
      GC map objects:  v1 (r6)
      0x00004376: 1c05    	mov     r5, r0
      0x00004378: 1c39    	mov     r1, r7
      0x0000437a: 690a    	ldr     r2, [r1, #16]
      0x0000437c: 6c52    	ldr     r2, [r2, #68]
      0x0000437e: 2a00    	cmp     r2, #0
      0x00004380: f0008252	beq.w   +1188 (0x00004828)
      0x00004384: 1c28    	mov     r0, r5
      0x00004386: b118    	cbz     r0, +6 (0x00004390)
      0x00004388: 6801    	ldr     r1, [r0, #0]
      0x0000438a: 4291    	cmp     r1, r2
      0x0000438c: f0408252	bne.w   +1188 (0x00004834)
      0x00004390: f8c6513c	str.w   r5, [r6, #316]
      0x00004394: b11d    	cbz     r5, +6 (0x0000439e)
      0x00004396: f8d90078	ldr.w   r0, [r9, #120]  ; card_table
      0x0000439a: 09f1    	lsrs    r1, r6, #7
      0x0000439c: 5440    	strb    r0, [r0, r1]
      0x0000439e: f2400559	movw    r5, #89
      0x000043a2: f6c7750e	movt    r5, #32526
      0x000043a6: 1c31    	mov     r1, r6
      0x000043a8: 6808    	ldr     r0, [r1, #0]
      0x000043aa: 1c2a    	mov     r2, r5
      0x000043ac: f8d003d8	ldr.w   r0, [r0, #984]
      0x000043b0: f8d0e02c	ldr.w   lr, [r0, #44]
      0x000043b4: 47f0    	blx     lr
      suspend point dex PC: 0x003a
      GC map objects:  v1 (r6)
      0x000043b6: 1c05    	mov     r5, r0
      0x000043b8: 1c39    	mov     r1, r7
      0x000043ba: 690a    	ldr     r2, [r1, #16]
      0x000043bc: 6c52    	ldr     r2, [r2, #68]
      0x000043be: 2a00    	cmp     r2, #0
      0x000043c0: f000823d	beq.w   +1146 (0x0000483e)
      0x000043c4: 1c28    	mov     r0, r5
      0x000043c6: b118    	cbz     r0, +6 (0x000043d0)
      0x000043c8: 6801    	ldr     r1, [r0, #0]
      0x000043ca: 4291    	cmp     r1, r2
      0x000043cc: f040823d	bne.w   +1146 (0x0000484a)
      0x000043d0: f8c65140	str.w   r5, [r6, #320]
      0x000043d4: b11d    	cbz     r5, +6 (0x000043de)
      0x000043d6: f8d92078	ldr.w   r2, [r9, #120]  ; card_table
      0x000043da: 09f3    	lsrs    r3, r6, #7
      0x000043dc: 54d2    	strb    r2, [r2, r3]
      0x000043de: f240055a	movw    r5, #90
      0x000043e2: f6c7750e	movt    r5, #32526
      0x000043e6: 1c31    	mov     r1, r6
      0x000043e8: 6808    	ldr     r0, [r1, #0]
      0x000043ea: 1c2a    	mov     r2, r5
      0x000043ec: f8d003d8	ldr.w   r0, [r0, #984]
      0x000043f0: f8d0e02c	ldr.w   lr, [r0, #44]
      0x000043f4: 47f0    	blx     lr
      suspend point dex PC: 0x0045
      GC map objects:  v1 (r6)
      0x000043f6: 1c05    	mov     r5, r0
      0x000043f8: 1c39    	mov     r1, r7
      0x000043fa: 690a    	ldr     r2, [r1, #16]
      0x000043fc: 6c52    	ldr     r2, [r2, #68]
      0x000043fe: 2a00    	cmp     r2, #0
      0x00004400: f0008228	beq.w   +1104 (0x00004854)
      0x00004404: 1c28    	mov     r0, r5
      0x00004406: b118    	cbz     r0, +6 (0x00004410)
      0x00004408: 6801    	ldr     r1, [r0, #0]
      0x0000440a: 4291    	cmp     r1, r2
      0x0000440c: f0408228	bne.w   +1104 (0x00004860)
      0x00004410: f8c65130	str.w   r5, [r6, #304]
      0x00004414: b125    	cbz     r5, +8 (0x00004420)
      0x00004416: f8d9c078	ldr.w   r12, [r9, #120]  ; card_table
      0x0000441a: 09f0    	lsrs    r0, r6, #7
      0x0000441c: f80cc000	strb    r12, [r12, r0]
      0x00004420: f240055e	movw    r5, #94
      0x00004424: f6c7750e	movt    r5, #32526
      0x00004428: 1c31    	mov     r1, r6
      0x0000442a: 6808    	ldr     r0, [r1, #0]
      0x0000442c: 1c2a    	mov     r2, r5
      0x0000442e: f8d003d8	ldr.w   r0, [r0, #984]
      0x00004432: f8d0e02c	ldr.w   lr, [r0, #44]
      0x00004436: 47f0    	blx     lr
      suspend point dex PC: 0x0050
      GC map objects:  v1 (r6)
      0x00004438: 1c05    	mov     r5, r0
      0x0000443a: 1c39    	mov     r1, r7
      0x0000443c: 690a    	ldr     r2, [r1, #16]
      0x0000443e: 6c52    	ldr     r2, [r2, #68]
      0x00004440: 2a00    	cmp     r2, #0
      0x00004442: f0008212	beq.w   +1060 (0x0000486a)
      0x00004446: 1c28    	mov     r0, r5
      0x00004448: b118    	cbz     r0, +6 (0x00004452)
      0x0000444a: 6801    	ldr     r1, [r0, #0]
      0x0000444c: 4291    	cmp     r1, r2
      0x0000444e: f0408212	bne.w   +1060 (0x00004876)
      0x00004452: f8c65120	str.w   r5, [r6, #288]
      0x00004456: b11d    	cbz     r5, +6 (0x00004460)
      0x00004458: f8d91078	ldr.w   r1, [r9, #120]  ; card_table
      0x0000445c: 09f2    	lsrs    r2, r6, #7
      0x0000445e: 5489    	strb    r1, [r1, r2]
      0x00004460: f240055f	movw    r5, #95
      0x00004464: f6c7750e	movt    r5, #32526
      0x00004468: 1c31    	mov     r1, r6
      0x0000446a: 6808    	ldr     r0, [r1, #0]
      0x0000446c: 1c2a    	mov     r2, r5
      0x0000446e: f8d003d8	ldr.w   r0, [r0, #984]
      0x00004472: f8d0e02c	ldr.w   lr, [r0, #44]
      0x00004476: 47f0    	blx     lr
      suspend point dex PC: 0x005b
      GC map objects:  v1 (r6)
      0x00004478: 1c05    	mov     r5, r0
      0x0000447a: 1c39    	mov     r1, r7
      0x0000447c: 690a    	ldr     r2, [r1, #16]
      0x0000447e: 6c52    	ldr     r2, [r2, #68]
      0x00004480: 2a00    	cmp     r2, #0
      0x00004482: f00081fd	beq.w   +1018 (0x00004880)
      0x00004486: 1c28    	mov     r0, r5
      0x00004488: b118    	cbz     r0, +6 (0x00004492)
      0x0000448a: 6801    	ldr     r1, [r0, #0]
      0x0000448c: 4291    	cmp     r1, r2
      0x0000448e: f04081fd	bne.w   +1018 (0x0000488c)
      0x00004492: f8c65148	str.w   r5, [r6, #328]
      0x00004496: b12d    	cbz     r5, +10 (0x000044a4)
      0x00004498: f8d93078	ldr.w   r3, [r9, #120]  ; card_table
      0x0000449c: ea4f1cd6	mov.w   r12, r6, lsr #7
      0x000044a0: f803300c	strb    r3, [r3, r12]
      0x000044a4: f8d6512c	ldr.w   r5, [r6, #300]
      0x000044a8: 1c29    	mov     r1, r5
      0x000044aa: 1c32    	mov     r2, r6
      0x000044ac: 6808    	ldr     r0, [r1, #0]
      suspend point dex PC: 0x0065
      GC map objects:  v0 (r5), v1 (r6)
      0x000044ae: f8d00a58	ldr.w   r0, [r0, #2648]
      0x000044b2: f8d0e02c	ldr.w   lr, [r0, #44]
      0x000044b6: 47f0    	blx     lr
      suspend point dex PC: 0x0065
      GC map objects:  v0 (r5), v1 (r6)
      0x000044b8: f8d65138	ldr.w   r5, [r6, #312]
      0x000044bc: 1c29    	mov     r1, r5
      0x000044be: 1c32    	mov     r2, r6
      0x000044c0: 6808    	ldr     r0, [r1, #0]
      suspend point dex PC: 0x006a
      GC map objects:  v0 (r5), v1 (r6)
      0x000044c2: f8d00a58	ldr.w   r0, [r0, #2648]
      0x000044c6: f8d0e02c	ldr.w   lr, [r0, #44]
      0x000044ca: 47f0    	blx     lr
      suspend point dex PC: 0x006a
      GC map objects:  v0 (r5), v1 (r6)
      0x000044cc: f8d65134	ldr.w   r5, [r6, #308]
      0x000044d0: 1c29    	mov     r1, r5
      0x000044d2: 1c32    	mov     r2, r6
      0x000044d4: 6808    	ldr     r0, [r1, #0]
      suspend point dex PC: 0x006f
      GC map objects:  v0 (r5), v1 (r6)
      0x000044d6: f8d00a58	ldr.w   r0, [r0, #2648]
      0x000044da: f8d0e02c	ldr.w   lr, [r0, #44]
      0x000044de: 47f0    	blx     lr
      suspend point dex PC: 0x006f
      GC map objects:  v0 (r5), v1 (r6)
      0x000044e0: f8d6513c	ldr.w   r5, [r6, #316]
      0x000044e4: 1c29    	mov     r1, r5
      0x000044e6: 1c32    	mov     r2, r6
      0x000044e8: 6808    	ldr     r0, [r1, #0]
      suspend point dex PC: 0x0074
      GC map objects:  v0 (r5), v1 (r6)
      0x000044ea: f8d00a58	ldr.w   r0, [r0, #2648]
      0x000044ee: f8d0e02c	ldr.w   lr, [r0, #44]
      0x000044f2: 47f0    	blx     lr
      suspend point dex PC: 0x0074
      GC map objects:  v0 (r5), v1 (r6)
      0x000044f4: f8d65140	ldr.w   r5, [r6, #320]
      0x000044f8: 1c29    	mov     r1, r5
      0x000044fa: 1c32    	mov     r2, r6
      0x000044fc: 6808    	ldr     r0, [r1, #0]
      suspend point dex PC: 0x0079
      GC map objects:  v0 (r5), v1 (r6)
      0x000044fe: f8d00a58	ldr.w   r0, [r0, #2648]
      0x00004502: f8d0e02c	ldr.w   lr, [r0, #44]
      0x00004506: 47f0    	blx     lr
      suspend point dex PC: 0x0079
      GC map objects:  v0 (r5), v1 (r6)
      0x00004508: f8d65130	ldr.w   r5, [r6, #304]
      0x0000450c: 1c29    	mov     r1, r5
      0x0000450e: 1c32    	mov     r2, r6
      0x00004510: 6808    	ldr     r0, [r1, #0]
      suspend point dex PC: 0x007e
      GC map objects:  v0 (r5), v1 (r6)
      0x00004512: f8d00a58	ldr.w   r0, [r0, #2648]
      0x00004516: f8d0e02c	ldr.w   lr, [r0, #44]
      0x0000451a: 47f0    	blx     lr
      suspend point dex PC: 0x007e
      GC map objects:  v0 (r5), v1 (r6)
      0x0000451c: f8d65120	ldr.w   r5, [r6, #288]
      0x00004520: 1c29    	mov     r1, r5
      0x00004522: 1c32    	mov     r2, r6
      0x00004524: 6808    	ldr     r0, [r1, #0]
      suspend point dex PC: 0x0083
      GC map objects:  v0 (r5), v1 (r6)
      0x00004526: f8d00a58	ldr.w   r0, [r0, #2648]
      0x0000452a: f8d0e02c	ldr.w   lr, [r0, #44]
      0x0000452e: 47f0    	blx     lr
      suspend point dex PC: 0x0083
      GC map objects:  v0 (r5), v1 (r6)
      0x00004530: f8d65148	ldr.w   r5, [r6, #328]
      0x00004534: 1c29    	mov     r1, r5
      0x00004536: 1c32    	mov     r2, r6
      0x00004538: 6808    	ldr     r0, [r1, #0]
      suspend point dex PC: 0x0088
      GC map objects:  v0 (r5), v1 (r6)
      0x0000453a: f8d00a58	ldr.w   r0, [r0, #2648]
      0x0000453e: f8d0e02c	ldr.w   lr, [r0, #44]
      0x00004542: 47f0    	blx     lr
      suspend point dex PC: 0x0088
      GC map objects:  v0 (r5), v1 (r6)
      0x00004544: f2400554	movw    r5, #84
      0x00004548: f6c7750e	movt    r5, #32526
      0x0000454c: 1c31    	mov     r1, r6
      0x0000454e: 6808    	ldr     r0, [r1, #0]
      0x00004550: 1c2a    	mov     r2, r5
      0x00004552: f8d003d8	ldr.w   r0, [r0, #984]
      0x00004556: f8d0e02c	ldr.w   lr, [r0, #44]
      0x0000455a: 47f0    	blx     lr
      suspend point dex PC: 0x008e
      GC map objects:  v1 (r6)
      0x0000455c: 1c05    	mov     r5, r0
      0x0000455e: 1c39    	mov     r1, r7
      0x00004560: 690a    	ldr     r2, [r1, #16]
      0x00004562: 6cd2    	ldr     r2, [r2, #76]
      0x00004564: 2a00    	cmp     r2, #0
      0x00004566: f0008196	beq.w   +812 (0x00004896)
      0x0000456a: 1c28    	mov     r0, r5
      0x0000456c: b118    	cbz     r0, +6 (0x00004576)
      0x0000456e: 6801    	ldr     r1, [r0, #0]
      0x00004570: 4291    	cmp     r1, r2
      0x00004572: f0408196	bne.w   +812 (0x000048a2)
      0x00004576: f8c65144	str.w   r5, [r6, #324]
      0x0000457a: b11d    	cbz     r5, +6 (0x00004584)
      0x0000457c: f8d90078	ldr.w   r0, [r9, #120]  ; card_table
      0x00004580: 09f1    	lsrs    r1, r6, #7
      0x00004582: 5440    	strb    r0, [r0, r1]
      0x00004584: f2400553	movw    r5, #83
      0x00004588: f6c7750e	movt    r5, #32526
      0x0000458c: 1c31    	mov     r1, r6
      0x0000458e: 6808    	ldr     r0, [r1, #0]
      0x00004590: 1c2a    	mov     r2, r5
      0x00004592: f8d003d8	ldr.w   r0, [r0, #984]
      0x00004596: f8d0e02c	ldr.w   lr, [r0, #44]
      0x0000459a: 47f0    	blx     lr
      suspend point dex PC: 0x0099
      GC map objects:  v1 (r6)
      0x0000459c: 1c05    	mov     r5, r0
      0x0000459e: 1c39    	mov     r1, r7
      0x000045a0: 690a    	ldr     r2, [r1, #16]
      0x000045a2: 6c92    	ldr     r2, [r2, #72]
      0x000045a4: 2a00    	cmp     r2, #0
      0x000045a6: f0008181	beq.w   +770 (0x000048ac)
      0x000045aa: 1c28    	mov     r0, r5
      0x000045ac: b118    	cbz     r0, +6 (0x000045b6)
      0x000045ae: 6801    	ldr     r1, [r0, #0]
      0x000045b0: 4291    	cmp     r1, r2
      0x000045b2: f0408181	bne.w   +770 (0x000048b8)
      0x000045b6: f8c6510c	str.w   r5, [r6, #268]
      0x000045ba: b11d    	cbz     r5, +6 (0x000045c4)
      0x000045bc: f8d92078	ldr.w   r2, [r9, #120]  ; card_table
      0x000045c0: 09f3    	lsrs    r3, r6, #7
      0x000045c2: 54d2    	strb    r2, [r2, r3]
      0x000045c4: f240055c	movw    r5, #92
      0x000045c8: f6c7750e	movt    r5, #32526
      0x000045cc: 1c31    	mov     r1, r6
      0x000045ce: 6808    	ldr     r0, [r1, #0]
      0x000045d0: 1c2a    	mov     r2, r5
      0x000045d2: f8d003d8	ldr.w   r0, [r0, #984]
      0x000045d6: f8d0e02c	ldr.w   lr, [r0, #44]
      0x000045da: 47f0    	blx     lr
      suspend point dex PC: 0x00a4
      GC map objects:  v1 (r6)
      0x000045dc: 1c05    	mov     r5, r0
      0x000045de: 1c39    	mov     r1, r7
      0x000045e0: 690a    	ldr     r2, [r1, #16]
      0x000045e2: 6c52    	ldr     r2, [r2, #68]
      0x000045e4: 2a00    	cmp     r2, #0
      0x000045e6: f000816c	beq.w   +728 (0x000048c2)
      0x000045ea: 1c28    	mov     r0, r5
      0x000045ec: b118    	cbz     r0, +6 (0x000045f6)
      0x000045ee: 6801    	ldr     r1, [r0, #0]
      0x000045f0: 4291    	cmp     r1, r2
      0x000045f2: f040816c	bne.w   +728 (0x000048ce)
      0x000045f6: f8c65110	str.w   r5, [r6, #272]
      0x000045fa: b125    	cbz     r5, +8 (0x00004606)
      0x000045fc: f8d9c078	ldr.w   r12, [r9, #120]  ; card_table
      0x00004600: 09f0    	lsrs    r0, r6, #7
      0x00004602: f80cc000	strb    r12, [r12, r0]
      0x00004606: f8d65110	ldr.w   r5, [r6, #272]
      0x0000460a: 1c29    	mov     r1, r5
      0x0000460c: 1c32    	mov     r2, r6
      0x0000460e: 6808    	ldr     r0, [r1, #0]
      suspend point dex PC: 0x00ae
      GC map objects:  v0 (r5), v1 (r6)
      0x00004610: f8d00a58	ldr.w   r0, [r0, #2648]
      0x00004614: f8d0e02c	ldr.w   lr, [r0, #44]
      0x00004618: 47f0    	blx     lr
      suspend point dex PC: 0x00ae
      GC map objects:  v0 (r5), v1 (r6)
      0x0000461a: f2400550	movw    r5, #80
      0x0000461e: f6c7750e	movt    r5, #32526
      0x00004622: 1c31    	mov     r1, r6
      0x00004624: 6808    	ldr     r0, [r1, #0]
      0x00004626: 1c2a    	mov     r2, r5
      0x00004628: f8d003d8	ldr.w   r0, [r0, #984]
      0x0000462c: f8d0e02c	ldr.w   lr, [r0, #44]
      0x00004630: 47f0    	blx     lr
      suspend point dex PC: 0x00b4
      GC map objects:  v1 (r6)
      0x00004632: 1c05    	mov     r5, r0
      0x00004634: 1c39    	mov     r1, r7
      0x00004636: 690a    	ldr     r2, [r1, #16]
      0x00004638: 6c52    	ldr     r2, [r2, #68]
      0x0000463a: 2a00    	cmp     r2, #0
      0x0000463c: f000814c	beq.w   +664 (0x000048d8)
      0x00004640: 1c28    	mov     r0, r5
      0x00004642: b118    	cbz     r0, +6 (0x0000464c)
      0x00004644: 6801    	ldr     r1, [r0, #0]
      0x00004646: 4291    	cmp     r1, r2
      0x00004648: f040814c	bne.w   +664 (0x000048e4)
      0x0000464c: f8c65114	str.w   r5, [r6, #276]
      0x00004650: b11d    	cbz     r5, +6 (0x0000465a)
      0x00004652: f8d91078	ldr.w   r1, [r9, #120]  ; card_table
      0x00004656: 09f2    	lsrs    r2, r6, #7
      0x00004658: 5489    	strb    r1, [r1, r2]
      0x0000465a: f8d65114	ldr.w   r5, [r6, #276]
      0x0000465e: 1c29    	mov     r1, r5
      0x00004660: 1c32    	mov     r2, r6
      0x00004662: 6808    	ldr     r0, [r1, #0]
      suspend point dex PC: 0x00be
      GC map objects:  v0 (r5), v1 (r6)
      0x00004664: f8d00a58	ldr.w   r0, [r0, #2648]
      0x00004668: f8d0e02c	ldr.w   lr, [r0, #44]
      0x0000466c: 47f0    	blx     lr
      suspend point dex PC: 0x00be
      GC map objects:  v0 (r5), v1 (r6)
      0x0000466e: f2400551	movw    r5, #81
      0x00004672: f6c7750e	movt    r5, #32526
      0x00004676: 1c31    	mov     r1, r6
      0x00004678: 6808    	ldr     r0, [r1, #0]
      0x0000467a: 1c2a    	mov     r2, r5
      0x0000467c: f8d003d8	ldr.w   r0, [r0, #984]
      0x00004680: f8d0e02c	ldr.w   lr, [r0, #44]
      0x00004684: 47f0    	blx     lr
      suspend point dex PC: 0x00c4
      GC map objects:  v1 (r6)
      0x00004686: 1c05    	mov     r5, r0
      0x00004688: 1c39    	mov     r1, r7
      0x0000468a: 690a    	ldr     r2, [r1, #16]
      0x0000468c: 6c52    	ldr     r2, [r2, #68]
      0x0000468e: 2a00    	cmp     r2, #0
      0x00004690: f000812d	beq.w   +602 (0x000048ee)
      0x00004694: 1c28    	mov     r0, r5
      0x00004696: b118    	cbz     r0, +6 (0x000046a0)
      0x00004698: 6801    	ldr     r1, [r0, #0]
      0x0000469a: 4291    	cmp     r1, r2
      0x0000469c: f040812d	bne.w   +602 (0x000048fa)
      0x000046a0: f8c6514c	str.w   r5, [r6, #332]
      0x000046a4: b12d    	cbz     r5, +10 (0x000046b2)
      0x000046a6: f8d93078	ldr.w   r3, [r9, #120]  ; card_table
      0x000046aa: ea4f1cd6	mov.w   r12, r6, lsr #7
      0x000046ae: f803300c	strb    r3, [r3, r12]
      0x000046b2: f8d6514c	ldr.w   r5, [r6, #332]
      0x000046b6: 1c29    	mov     r1, r5
      0x000046b8: 1c32    	mov     r2, r6
      0x000046ba: 6808    	ldr     r0, [r1, #0]
      suspend point dex PC: 0x00ce
      GC map objects:  v0 (r5), v1 (r6)
      0x000046bc: f8d00a58	ldr.w   r0, [r0, #2648]
      0x000046c0: f8d0e02c	ldr.w   lr, [r0, #44]
      0x000046c4: 47f0    	blx     lr
      suspend point dex PC: 0x00ce
      GC map objects:  v0 (r5), v1 (r6)
      0x000046c6: f2400552	movw    r5, #82
      0x000046ca: f6c7750e	movt    r5, #32526
      0x000046ce: 1c31    	mov     r1, r6
      0x000046d0: 6808    	ldr     r0, [r1, #0]
      0x000046d2: 1c2a    	mov     r2, r5
      0x000046d4: f8d003d8	ldr.w   r0, [r0, #984]
      0x000046d8: f8d0e02c	ldr.w   lr, [r0, #44]
      0x000046dc: 47f0    	blx     lr
      suspend point dex PC: 0x00d4
      GC map objects:  v1 (r6)
      0x000046de: 1c05    	mov     r5, r0
      0x000046e0: 1c39    	mov     r1, r7
      0x000046e2: 690a    	ldr     r2, [r1, #16]
      0x000046e4: 6c52    	ldr     r2, [r2, #68]
      0x000046e6: 2a00    	cmp     r2, #0
      0x000046e8: f000810c	beq.w   +536 (0x00004904)
      0x000046ec: 1c28    	mov     r0, r5
      0x000046ee: b118    	cbz     r0, +6 (0x000046f8)
      0x000046f0: 6801    	ldr     r1, [r0, #0]
      0x000046f2: 4291    	cmp     r1, r2
      0x000046f4: f040810c	bne.w   +536 (0x00004910)
      0x000046f8: f8c65150	str.w   r5, [r6, #336]
      0x000046fc: b11d    	cbz     r5, +6 (0x00004706)
      0x000046fe: f8d90078	ldr.w   r0, [r9, #120]  ; card_table
      0x00004702: 09f1    	lsrs    r1, r6, #7
      0x00004704: 5440    	strb    r0, [r0, r1]
      0x00004706: f8d65150	ldr.w   r5, [r6, #336]
      0x0000470a: 1c29    	mov     r1, r5
      0x0000470c: 1c32    	mov     r2, r6
      0x0000470e: 6808    	ldr     r0, [r1, #0]
      suspend point dex PC: 0x00de
      GC map objects:  v0 (r5), v1 (r6)
      0x00004710: f8d00a58	ldr.w   r0, [r0, #2648]
      0x00004714: f8d0e02c	ldr.w   lr, [r0, #44]
      0x00004718: 47f0    	blx     lr
      suspend point dex PC: 0x00de
      GC map objects:  v0 (r5), v1 (r6)
      0x0000471a: f240055d	movw    r5, #93
      0x0000471e: f6c7750e	movt    r5, #32526
      0x00004722: 1c31    	mov     r1, r6
      0x00004724: 6808    	ldr     r0, [r1, #0]
      0x00004726: 1c2a    	mov     r2, r5
      0x00004728: f8d003d8	ldr.w   r0, [r0, #984]
      0x0000472c: f8d0e02c	ldr.w   lr, [r0, #44]
      0x00004730: 47f0    	blx     lr
      suspend point dex PC: 0x00e4
      GC map objects:  v1 (r6)
      0x00004732: 1c05    	mov     r5, r0
      0x00004734: 1c39    	mov     r1, r7
      0x00004736: 690a    	ldr     r2, [r1, #16]
      0x00004738: 6c52    	ldr     r2, [r2, #68]
      0x0000473a: 2a00    	cmp     r2, #0
      0x0000473c: f00080ed	beq.w   +474 (0x0000491a)
      0x00004740: 1c28    	mov     r0, r5
      0x00004742: b118    	cbz     r0, +6 (0x0000474c)
      0x00004744: 6801    	ldr     r1, [r0, #0]
      0x00004746: 4291    	cmp     r1, r2
      0x00004748: f04080ed	bne.w   +474 (0x00004926)
      0x0000474c: f8c65118	str.w   r5, [r6, #280]
      0x00004750: b11d    	cbz     r5, +6 (0x0000475a)
      0x00004752: f8d92078	ldr.w   r2, [r9, #120]  ; card_table
      0x00004756: 09f3    	lsrs    r3, r6, #7
      0x00004758: 54d2    	strb    r2, [r2, r3]
      0x0000475a: f8d65118	ldr.w   r5, [r6, #280]
      0x0000475e: 1c29    	mov     r1, r5
      0x00004760: 1c32    	mov     r2, r6
      0x00004762: 6808    	ldr     r0, [r1, #0]
      suspend point dex PC: 0x00ee
      GC map objects:  v0 (r5), v1 (r6)
      0x00004764: f8d00a58	ldr.w   r0, [r0, #2648]
      0x00004768: f8d0e02c	ldr.w   lr, [r0, #44]
      0x0000476c: 47f0    	blx     lr
      suspend point dex PC: 0x00ee
      GC map objects:  v0 (r5), v1 (r6)
      0x0000476e: f240055b	movw    r5, #91
      0x00004772: f6c7750e	movt    r5, #32526
      0x00004776: 1c31    	mov     r1, r6
      0x00004778: 6808    	ldr     r0, [r1, #0]
      0x0000477a: 1c2a    	mov     r2, r5
      0x0000477c: f8d003d8	ldr.w   r0, [r0, #984]
      0x00004780: f8d0e02c	ldr.w   lr, [r0, #44]
      0x00004784: 47f0    	blx     lr
      suspend point dex PC: 0x00f4
      GC map objects:  v1 (r6)
      0x00004786: 1c05    	mov     r5, r0
      0x00004788: 1c39    	mov     r1, r7
      0x0000478a: 690a    	ldr     r2, [r1, #16]
      0x0000478c: 6c52    	ldr     r2, [r2, #68]
      0x0000478e: 2a00    	cmp     r2, #0
      0x00004790: f00080ce	beq.w   +412 (0x00004930)
      0x00004794: 1c28    	mov     r0, r5
      0x00004796: b118    	cbz     r0, +6 (0x000047a0)
      0x00004798: 6801    	ldr     r1, [r0, #0]
      0x0000479a: 4291    	cmp     r1, r2
      0x0000479c: f04080ce	bne.w   +412 (0x0000493c)
      0x000047a0: f8c65128	str.w   r5, [r6, #296]
      0x000047a4: b125    	cbz     r5, +8 (0x000047b0)
      0x000047a6: f8d9c078	ldr.w   r12, [r9, #120]  ; card_table
      0x000047aa: 09f0    	lsrs    r0, r6, #7
      0x000047ac: f80cc000	strb    r12, [r12, r0]
      0x000047b0: f8d65128	ldr.w   r5, [r6, #296]
      0x000047b4: 1c29    	mov     r1, r5
      0x000047b6: 1c32    	mov     r2, r6
      0x000047b8: 6808    	ldr     r0, [r1, #0]
      suspend point dex PC: 0x00fe
      GC map objects:  v0 (r5), v1 (r6)
      0x000047ba: f8d00a58	ldr.w   r0, [r0, #2648]
      0x000047be: f8d0e02c	ldr.w   lr, [r0, #44]
      0x000047c2: 47f0    	blx     lr
      suspend point dex PC: 0x00fe
      GC map objects:  v0 (r5), v1 (r6)
      0x000047c4: 3c01    	subs    r4, #1
      0x000047c6: f00080be	beq.w   +380 (0x00004946)
      0x000047ca: b008    	add     sp, sp, #32
      0x000047cc: e8bd80e0	pop     {r5, r6, r7, pc}
      0x000047d0: f8d9e14c	ldr.w   lr, [r9, #332]  ; pInitializeType
      0x000047d4: 2010    	movs    r0, #16
      0x000047d6: 47f0    	blx     lr
      suspend point dex PC: 0x0007
      GC map objects:  v0 (r5), v1 (r6)
      0x000047d8: 1c02    	mov     r2, r0
      0x000047da: e550    	b       -1376 (0x0000427e)
      0x000047dc: f8d9e140	ldr.w   lr, [r9, #320]  ; pCheckCast
      0x000047e0: 1c10    	mov     r0, r2
      0x000047e2: 47f0    	blx     lr
      suspend point dex PC: 0x0007
      GC map objects:  v0 (r5), v1 (r6)
      0x000047e4: e551    	b       -1374 (0x0000428a)
      0x000047e6: f8d9e14c	ldr.w   lr, [r9, #332]  ; pInitializeType
      0x000047ea: 200e    	movs    r0, #14
      0x000047ec: 47f0    	blx     lr
      suspend point dex PC: 0x0012
      GC map objects:  v0 (r5), v1 (r6)
      0x000047ee: 1c02    	mov     r2, r0
      0x000047f0: e565    	b       -1334 (0x000042be)
      0x000047f2: f8d9e140	ldr.w   lr, [r9, #320]  ; pCheckCast
      0x000047f6: 1c10    	mov     r0, r2
      0x000047f8: 47f0    	blx     lr
      suspend point dex PC: 0x0012
      GC map objects:  v0 (r5), v1 (r6)
      0x000047fa: e566    	b       -1332 (0x000042ca)
      0x000047fc: f8d9e14c	ldr.w   lr, [r9, #332]  ; pInitializeType
      0x00004800: 200e    	movs    r0, #14
      0x00004802: 47f0    	blx     lr
      suspend point dex PC: 0x001d
      GC map objects:  v0 (r5), v1 (r6)
      0x00004804: 1c02    	mov     r2, r0
      0x00004806: e57b    	b       -1290 (0x00004300)
      0x00004808: f8d9e140	ldr.w   lr, [r9, #320]  ; pCheckCast
      0x0000480c: 1c10    	mov     r0, r2
      0x0000480e: 47f0    	blx     lr
      suspend point dex PC: 0x001d
      GC map objects:  v0 (r5), v1 (r6)
      0x00004810: e57c    	b       -1288 (0x0000430c)
      0x00004812: f8d9e14c	ldr.w   lr, [r9, #332]  ; pInitializeType
      0x00004816: 200e    	movs    r0, #14
      0x00004818: 47f0    	blx     lr
      suspend point dex PC: 0x0028
      GC map objects:  v0 (r5), v1 (r6)
      0x0000481a: 1c02    	mov     r2, r0
      0x0000481c: e590    	b       -1248 (0x00004340)
      0x0000481e: f8d9e140	ldr.w   lr, [r9, #320]  ; pCheckCast
      0x00004822: 1c10    	mov     r0, r2
      0x00004824: 47f0    	blx     lr
      suspend point dex PC: 0x0028
      GC map objects:  v0 (r5), v1 (r6)
      0x00004826: e591    	b       -1246 (0x0000434c)
      0x00004828: f8d9e14c	ldr.w   lr, [r9, #332]  ; pInitializeType
      0x0000482c: 200e    	movs    r0, #14
      0x0000482e: 47f0    	blx     lr
      suspend point dex PC: 0x0033
      GC map objects:  v0 (r5), v1 (r6)
      0x00004830: 1c02    	mov     r2, r0
      0x00004832: e5a7    	b       -1202 (0x00004384)
      0x00004834: f8d9e140	ldr.w   lr, [r9, #320]  ; pCheckCast
      0x00004838: 1c10    	mov     r0, r2
      0x0000483a: 47f0    	blx     lr
      suspend point dex PC: 0x0033
      GC map objects:  v0 (r5), v1 (r6)
      0x0000483c: e5a8    	b       -1200 (0x00004390)
      0x0000483e: f8d9e14c	ldr.w   lr, [r9, #332]  ; pInitializeType
      0x00004842: 200e    	movs    r0, #14
      0x00004844: 47f0    	blx     lr
      suspend point dex PC: 0x003e
      GC map objects:  v0 (r5), v1 (r6)
      0x00004846: 1c02    	mov     r2, r0
      0x00004848: e5bc    	b       -1160 (0x000043c4)
      0x0000484a: f8d9e140	ldr.w   lr, [r9, #320]  ; pCheckCast
      0x0000484e: 1c10    	mov     r0, r2
      0x00004850: 47f0    	blx     lr
      suspend point dex PC: 0x003e
      GC map objects:  v0 (r5), v1 (r6)
      0x00004852: e5bd    	b       -1158 (0x000043d0)
      0x00004854: f8d9e14c	ldr.w   lr, [r9, #332]  ; pInitializeType
      0x00004858: 200e    	movs    r0, #14
      0x0000485a: 47f0    	blx     lr
      suspend point dex PC: 0x0049
      GC map objects:  v0 (r5), v1 (r6)
      0x0000485c: 1c02    	mov     r2, r0
      0x0000485e: e5d1    	b       -1118 (0x00004404)
      0x00004860: f8d9e140	ldr.w   lr, [r9, #320]  ; pCheckCast
      0x00004864: 1c10    	mov     r0, r2
      0x00004866: 47f0    	blx     lr
      suspend point dex PC: 0x0049
      GC map objects:  v0 (r5), v1 (r6)
      0x00004868: e5d2    	b       -1116 (0x00004410)
      0x0000486a: f8d9e14c	ldr.w   lr, [r9, #332]  ; pInitializeType
      0x0000486e: 200e    	movs    r0, #14
      0x00004870: 47f0    	blx     lr
      suspend point dex PC: 0x0054
      GC map objects:  v0 (r5), v1 (r6)
      0x00004872: 1c02    	mov     r2, r0
      0x00004874: e5e7    	b       -1074 (0x00004446)
      0x00004876: f8d9e140	ldr.w   lr, [r9, #320]  ; pCheckCast
      0x0000487a: 1c10    	mov     r0, r2
      0x0000487c: 47f0    	blx     lr
      suspend point dex PC: 0x0054
      GC map objects:  v0 (r5), v1 (r6)
      0x0000487e: e5e8    	b       -1072 (0x00004452)
      0x00004880: f8d9e14c	ldr.w   lr, [r9, #332]  ; pInitializeType
      0x00004884: 200e    	movs    r0, #14
      0x00004886: 47f0    	blx     lr
      suspend point dex PC: 0x005f
      GC map objects:  v0 (r5), v1 (r6)
      0x00004888: 1c02    	mov     r2, r0
      0x0000488a: e5fc    	b       -1032 (0x00004486)
      0x0000488c: f8d9e140	ldr.w   lr, [r9, #320]  ; pCheckCast
      0x00004890: 1c10    	mov     r0, r2
      0x00004892: 47f0    	blx     lr
      suspend point dex PC: 0x005f
      GC map objects:  v0 (r5), v1 (r6)
      0x00004894: e5fd    	b       -1030 (0x00004492)
      0x00004896: f8d9e14c	ldr.w   lr, [r9, #332]  ; pInitializeType
      0x0000489a: 2010    	movs    r0, #16
      0x0000489c: 47f0    	blx     lr
      suspend point dex PC: 0x0092
      GC map objects:  v0 (r5), v1 (r6)
      0x0000489e: 1c02    	mov     r2, r0
      0x000048a0: e663    	b       -826 (0x0000456a)
      0x000048a2: f8d9e140	ldr.w   lr, [r9, #320]  ; pCheckCast
      0x000048a6: 1c10    	mov     r0, r2
      0x000048a8: 47f0    	blx     lr
      suspend point dex PC: 0x0092
      GC map objects:  v0 (r5), v1 (r6)
      0x000048aa: e664    	b       -824 (0x00004576)
      0x000048ac: f8d9e14c	ldr.w   lr, [r9, #332]  ; pInitializeType
      0x000048b0: 200f    	movs    r0, #15
      0x000048b2: 47f0    	blx     lr
      suspend point dex PC: 0x009d
      GC map objects:  v0 (r5), v1 (r6)
      0x000048b4: 1c02    	mov     r2, r0
      0x000048b6: e678    	b       -784 (0x000045aa)
      0x000048b8: f8d9e140	ldr.w   lr, [r9, #320]  ; pCheckCast
      0x000048bc: 1c10    	mov     r0, r2
      0x000048be: 47f0    	blx     lr
      suspend point dex PC: 0x009d
      GC map objects:  v0 (r5), v1 (r6)
      0x000048c0: e679    	b       -782 (0x000045b6)
      0x000048c2: f8d9e14c	ldr.w   lr, [r9, #332]  ; pInitializeType
      0x000048c6: 200e    	movs    r0, #14
      0x000048c8: 47f0    	blx     lr
      suspend point dex PC: 0x00a8
      GC map objects:  v0 (r5), v1 (r6)
      0x000048ca: 1c02    	mov     r2, r0
      0x000048cc: e68d    	b       -742 (0x000045ea)
      0x000048ce: f8d9e140	ldr.w   lr, [r9, #320]  ; pCheckCast
      0x000048d2: 1c10    	mov     r0, r2
      0x000048d4: 47f0    	blx     lr
      suspend point dex PC: 0x00a8
      GC map objects:  v0 (r5), v1 (r6)
      0x000048d6: e68e    	b       -740 (0x000045f6)
      0x000048d8: f8d9e14c	ldr.w   lr, [r9, #332]  ; pInitializeType
      0x000048dc: 200e    	movs    r0, #14
      0x000048de: 47f0    	blx     lr
      suspend point dex PC: 0x00b8
      GC map objects:  v0 (r5), v1 (r6)
      0x000048e0: 1c02    	mov     r2, r0
      0x000048e2: e6ad    	b       -678 (0x00004640)
      0x000048e4: f8d9e140	ldr.w   lr, [r9, #320]  ; pCheckCast
      0x000048e8: 1c10    	mov     r0, r2
      0x000048ea: 47f0    	blx     lr
      suspend point dex PC: 0x00b8
      GC map objects:  v0 (r5), v1 (r6)
      0x000048ec: e6ae    	b       -676 (0x0000464c)
      0x000048ee: f8d9e14c	ldr.w   lr, [r9, #332]  ; pInitializeType
      0x000048f2: 200e    	movs    r0, #14
      0x000048f4: 47f0    	blx     lr
      suspend point dex PC: 0x00c8
      GC map objects:  v0 (r5), v1 (r6)
      0x000048f6: 1c02    	mov     r2, r0
      0x000048f8: e6cc    	b       -616 (0x00004694)
      0x000048fa: f8d9e140	ldr.w   lr, [r9, #320]  ; pCheckCast
      0x000048fe: 1c10    	mov     r0, r2
      0x00004900: 47f0    	blx     lr
      suspend point dex PC: 0x00c8
      GC map objects:  v0 (r5), v1 (r6)
      0x00004902: e6cd    	b       -614 (0x000046a0)
      0x00004904: f8d9e14c	ldr.w   lr, [r9, #332]  ; pInitializeType
      0x00004908: 200e    	movs    r0, #14
      0x0000490a: 47f0    	blx     lr
      suspend point dex PC: 0x00d8
      GC map objects:  v0 (r5), v1 (r6)
      0x0000490c: 1c02    	mov     r2, r0
      0x0000490e: e6ed    	b       -550 (0x000046ec)
      0x00004910: f8d9e140	ldr.w   lr, [r9, #320]  ; pCheckCast
      0x00004914: 1c10    	mov     r0, r2
      0x00004916: 47f0    	blx     lr
      suspend point dex PC: 0x00d8
      GC map objects:  v0 (r5), v1 (r6)
      0x00004918: e6ee    	b       -548 (0x000046f8)
      0x0000491a: f8d9e14c	ldr.w   lr, [r9, #332]  ; pInitializeType
      0x0000491e: 200e    	movs    r0, #14
      0x00004920: 47f0    	blx     lr
      suspend point dex PC: 0x00e8
      GC map objects:  v0 (r5), v1 (r6)
      0x00004922: 1c02    	mov     r2, r0
      0x00004924: e70c    	b       -488 (0x00004740)
      0x00004926: f8d9e140	ldr.w   lr, [r9, #320]  ; pCheckCast
      0x0000492a: 1c10    	mov     r0, r2
      0x0000492c: 47f0    	blx     lr
      suspend point dex PC: 0x00e8
      GC map objects:  v0 (r5), v1 (r6)
      0x0000492e: e70d    	b       -486 (0x0000474c)
      0x00004930: f8d9e14c	ldr.w   lr, [r9, #332]  ; pInitializeType
      0x00004934: 200e    	movs    r0, #14
      0x00004936: 47f0    	blx     lr
      suspend point dex PC: 0x00f8
      GC map objects:  v0 (r5), v1 (r6)
      0x00004938: 1c02    	mov     r2, r0
      0x0000493a: e72b    	b       -426 (0x00004794)
      0x0000493c: f8d9e140	ldr.w   lr, [r9, #320]  ; pCheckCast
      0x00004940: 1c10    	mov     r0, r2
      0x00004942: 47f0    	blx     lr
      suspend point dex PC: 0x00f8
      GC map objects:  v0 (r5), v1 (r6)
      0x00004944: e72c    	b       -424 (0x000047a0)
      0x00004946: f8d9e230	ldr.w   lr, [r9, #560]  ; pTestSuspend
      0x0000494a: 47f0    	blx     lr
      suspend point dex PC: 0x0101
      0x0000494c: e73d    	b       -390 (0x000047ca)
      0x0000494e: 0000    	lsls    r0, r0, #0
  4: void com.weidian.sample.MainActivity.loadPatch() (dex_method_idx=36)
    DEX CODE:
      0x0000: new-instance v0, java.io.File // type@35
      0x0002: invoke-static {}, java.io.File android.os.Environment.getExternalStorageDirectory() // method@12
      0x0005: move-result-object v1
      0x0006: const-string v2, "patch.apk" // string@154
      0x0008: invoke-direct {v0, v1, v2}, void java.io.File.<init>(java.io.File, java.lang.String) // method@82
      0x000b: invoke-virtual {v0}, boolean java.io.File.exists() // method@84
      0x000e: move-result v1
      0x000f: if-nez v1, +13
      0x0011: new-instance v0, java.io.File // type@35
      0x0013: invoke-virtual {v3}, java.io.File com.weidian.sample.MainActivity.getFilesDir() // method@31
      0x0016: move-result-object v1
      0x0017: const-string v2, "patch.apk" // string@154
      0x0019: invoke-direct {v0, v1, v2}, void java.io.File.<init>(java.io.File, java.lang.String) // method@82
      0x001c: invoke-virtual {v0}, boolean java.io.File.exists() // method@84
      0x001f: move-result v1
      0x0020: if-eqz v1, +5
      0x0022: invoke-static {v3, v0}, com.weidian.sample.loader.VApkHelper$APK com.weidian.sample.loader.VPatchLoader.updatePatch(android.content.Context, java.io.File) // method@78
      0x0025: return-void
    OatMethodOffsets (offset=0x00002af0)
      code_offset: 0x0000496d 
      gc_map: (offset=0x00002ca8)
    OatQuickMethodHeader (offset=0x00004950)
      mapping_table: (offset=0x000030ba)
      vmap_table: (offset=0x00003326)
      v65534/r5, v0/r6, v1/r7, v2/r8, v3/r10, v65535/r15
    QuickMethodFrameInfo
      frame_size_in_bytes: 64
      core_spill_mask: 0x000085e0 (r5, r6, r7, r8, r10, r15)
      fp_spill_mask: 0x00000000 
    CODE: (code_offset=0x0000496d size_offset=0x00004968 size=264)...
      0x0000496c: f5bd5c00	subs    r12, sp, #8192
      0x00004970: f8dcc000	ldr.w   r12, [r12, #0]
      suspend point dex PC: 0x0000
      GC map objects:  v3 (r10)
      0x00004974: e92d45e0	push    {r5, r6, r7, r8, r10, lr}
      0x00004978: b08a    	sub     sp, sp, #40
      0x0000497a: 1c05    	mov     r5, r0
      0x0000497c: 9000    	str     r0, [sp, #0]
      0x0000497e: 468a    	mov     r10, r1
      0x00004980: f8d9e128	ldr.w   lr, [r9, #296]  ; pAllocObjectResolved
      0x00004984: 1c29    	mov     r1, r5
      0x00004986: f24070b8	movw    r0, #1976
      0x0000498a: f2c70054	movt    r0, #28756
      0x0000498e: 47f0    	blx     lr
      suspend point dex PC: 0x0000
      GC map objects:  v3 (r10)
      0x00004990: 1c06    	mov     r6, r0
      0x00004992: 1c28    	mov     r0, r5
      0x00004994: 68c0    	ldr     r0, [r0, #12]
      0x00004996: 6bc0    	ldr     r0, [r0, #60]
      0x00004998: f8d0e02c	ldr.w   lr, [r0, #44]
      0x0000499c: 47f0    	blx     lr
      suspend point dex PC: 0x0002
      GC map objects:  v0 (r6), v3 (r10)
      0x0000499e: 1c07    	mov     r7, r0
      0x000049a0: 68a8    	ldr     r0, [r5, #8]
      0x000049a2: 6940    	ldr     r0, [r0, #20]
      0x000049a4: f8d00274	ldr.w   r0, [r0, #628]
      0x000049a8: 2800    	cmp     r0, #0
      0x000049aa: d053    	beq     +166 (0x00004a54)
      0x000049ac: 4680    	mov     r8, r0
      0x000049ae: f2421eb5	movw    lr, #8629
      0x000049b2: f2c72e0a	movt    lr, #29194
      0x000049b6: f6425040	movw    r0, #11584
      0x000049ba: f2c70059	movt    r0, #28761
      0x000049be: 1c31    	mov     r1, r6
      0x000049c0: 1c3a    	mov     r2, r7
      0x000049c2: 4643    	mov     r3, r8
      0x000049c4: 47f0    	blx     lr
      suspend point dex PC: 0x0008
      GC map objects:  v0 (r6), v1 (r7), v2 (r8), v3 (r10)
      0x000049c6: f6434e75	movw    lr, #15477
      0x000049ca: f2c72e0a	movt    lr, #29194
      0x000049ce: f2432050	movw    r0, #12880
      0x000049d2: f2c70059	movt    r0, #28761
      0x000049d6: 1c31    	mov     r1, r6
      0x000049d8: 47f0    	blx     lr
      suspend point dex PC: 0x000b
      GC map objects:  v0 (r6), v1 (r7), v2 (r8), v3 (r10)
      0x000049da: 1c07    	mov     r7, r0
      0x000049dc: bb17    	cbnz    r7, +68 (0x00004a24)
      0x000049de: f8d9e128	ldr.w   lr, [r9, #296]  ; pAllocObjectResolved
      0x000049e2: 1c29    	mov     r1, r5
      0x000049e4: f24070b8	movw    r0, #1976
      0x000049e8: f2c70054	movt    r0, #28756
      0x000049ec: 47f0    	blx     lr
      suspend point dex PC: 0x0011
      GC map objects:  v0 (r6), v2 (r8), v3 (r10)
      0x000049ee: 1c06    	mov     r6, r0
      0x000049f0: 4651    	mov     r1, r10
      0x000049f2: 6808    	ldr     r0, [r1, #0]
      0x000049f4: f8d00254	ldr.w   r0, [r0, #596]
      0x000049f8: f8d0e02c	ldr.w   lr, [r0, #44]
      0x000049fc: 47f0    	blx     lr
      suspend point dex PC: 0x0013
      GC map objects:  v0 (r6), v2 (r8), v3 (r10)
      0x000049fe: 1c07    	mov     r7, r0
      0x00004a00: 68a8    	ldr     r0, [r5, #8]
      0x00004a02: 6940    	ldr     r0, [r0, #20]
      0x00004a04: f8d00274	ldr.w   r0, [r0, #628]
      0x00004a08: b350    	cbz     r0, +84 (0x00004a60)
      0x00004a0a: 4680    	mov     r8, r0
      0x00004a0c: f2421eb5	movw    lr, #8629
      0x00004a10: f2c72e0a	movt    lr, #29194
      0x00004a14: f6425040	movw    r0, #11584
      0x00004a18: f2c70059	movt    r0, #28761
      0x00004a1c: 1c31    	mov     r1, r6
      0x00004a1e: 1c3a    	mov     r2, r7
      0x00004a20: 4643    	mov     r3, r8
      0x00004a22: 47f0    	blx     lr
      suspend point dex PC: 0x0019
      GC map objects:  v0 (r6), v1 (r7), v2 (r8), v3 (r10)
      0x00004a24: f6434e75	movw    lr, #15477
      0x00004a28: f2c72e0a	movt    lr, #29194
      0x00004a2c: f2432050	movw    r0, #12880
      0x00004a30: f2c70059	movt    r0, #28761
      0x00004a34: 1c31    	mov     r1, r6
      0x00004a36: 47f0    	blx     lr
      suspend point dex PC: 0x001c
      GC map objects:  v0 (r6), v2 (r8), v3 (r10)
      0x00004a38: 1c07    	mov     r7, r0
      0x00004a3a: b12f    	cbz     r7, +10 (0x00004a48)
      0x00004a3c: f8d9e224	ldr.w   lr, [r9, #548]  ; pInvokeStaticTrampolineWithAccessCheck
      0x00004a40: 204e    	movs    r0, #78
      0x00004a42: 4651    	mov     r1, r10
      0x00004a44: 1c32    	mov     r2, r6
      0x00004a46: 47f0    	blx     lr
      suspend point dex PC: 0x0022
      GC map objects:  v0 (r6), v2 (r8), v3 (r10)
      0x00004a48: 3c01    	subs    r4, #1
      0x00004a4a: f000800f	beq.w   +30 (0x00004a6c)
      0x00004a4e: b00a    	add     sp, sp, #40
      0x00004a50: e8bd85e0	pop     {r5, r6, r7, r8, r10, pc}
      0x00004a54: f8d9e150	ldr.w   lr, [r9, #336]  ; pResolveString
      0x00004a58: 1c28    	mov     r0, r5
      0x00004a5a: 219a    	movs    r1, #154
      0x00004a5c: 47f0    	blx     lr
      suspend point dex PC: 0x0006
      GC map objects:  v0 (r6), v1 (r7), v3 (r10)
      0x00004a5e: e7a5    	b       -182 (0x000049ac)
      0x00004a60: f8d9e150	ldr.w   lr, [r9, #336]  ; pResolveString
      0x00004a64: 1c28    	mov     r0, r5
      0x00004a66: 219a    	movs    r1, #154
      0x00004a68: 47f0    	blx     lr
      suspend point dex PC: 0x0017
      GC map objects:  v0 (r6), v1 (r7), v2 (r8), v3 (r10)
      0x00004a6a: e7ce    	b       -100 (0x00004a0a)
      0x00004a6c: f8d9e230	ldr.w   lr, [r9, #560]  ; pTestSuspend
      0x00004a70: 47f0    	blx     lr
      suspend point dex PC: 0x0025
      0x00004a72: e7ec    	b       -40 (0x00004a4e)
  5: void com.weidian.sample.MainActivity.method1() (dex_method_idx=37)
    DEX CODE:
      0x0000: const-string v0, "TAG" // string@67
      0x0002: const-string v1, "method1" // string@138
      0x0004: invoke-static {v0, v1}, int android.util.Log.d(java.lang.String, java.lang.String) // method@13
      0x0007: return-void
    OatMethodOffsets (offset=0x00002af4)
      code_offset: 0x00004a95 
      gc_map: (offset=0x00002cd3)
    OatQuickMethodHeader (offset=0x00004a78)
      mapping_table: (offset=0x000030d6)
      vmap_table: (offset=0x00003321)
      v0/r5, v1/r6, v65534/r7, v65535/r15
    QuickMethodFrameInfo
      frame_size_in_bytes: 48
      core_spill_mask: 0x000080e0 (r5, r6, r7, r15)
      fp_spill_mask: 0x00000000 
    CODE: (code_offset=0x00004a95 size_offset=0x00004a90 size=112)...
      0x00004a94: f5bd5c00	subs    r12, sp, #8192
      0x00004a98: f8dcc000	ldr.w   r12, [r12, #0]
      suspend point dex PC: 0x0000
      GC map objects:  v2 ([sp + #52])
      0x00004a9c: e92d40e0	push    {r5, r6, r7, lr}
      0x00004aa0: b088    	sub     sp, sp, #32
      0x00004aa2: 1c07    	mov     r7, r0
      0x00004aa4: 9000    	str     r0, [sp, #0]
      0x00004aa6: 910d    	str     r1, [sp, #52]
      0x00004aa8: 68b8    	ldr     r0, [r7, #8]
      0x00004aaa: 6940    	ldr     r0, [r0, #20]
      0x00004aac: f8d00118	ldr.w   r0, [r0, #280]
      0x00004ab0: b1b8    	cbz     r0, +46 (0x00004ae2)
      0x00004ab2: 1c05    	mov     r5, r0
      0x00004ab4: 68b8    	ldr     r0, [r7, #8]
      0x00004ab6: 6940    	ldr     r0, [r0, #20]
      0x00004ab8: f8d00234	ldr.w   r0, [r0, #564]
      0x00004abc: b1b8    	cbz     r0, +46 (0x00004aee)
      0x00004abe: 1c06    	mov     r6, r0
      0x00004ac0: f24a5e5d	movw    lr, #42333
      0x00004ac4: f2c73e25	movt    lr, #29477
      0x00004ac8: f2457088	movw    r0, #22408
      0x00004acc: f6c670e8	movt    r0, #28648
      0x00004ad0: 1c29    	mov     r1, r5
      0x00004ad2: 1c32    	mov     r2, r6
      0x00004ad4: 47f0    	blx     lr
      suspend point dex PC: 0x0004
      GC map objects:  v0 (r5), v1 (r6), v2 ([sp + #52])
      0x00004ad6: 3c01    	subs    r4, #1
      0x00004ad8: f000800f	beq.w   +30 (0x00004afa)
      0x00004adc: b008    	add     sp, sp, #32
      0x00004ade: e8bd80e0	pop     {r5, r6, r7, pc}
      0x00004ae2: f8d9e150	ldr.w   lr, [r9, #336]  ; pResolveString
      0x00004ae6: 1c38    	mov     r0, r7
      0x00004ae8: 2143    	movs    r1, #67
      0x00004aea: 47f0    	blx     lr
      suspend point dex PC: 0x0000
      GC map objects:  v2 ([sp + #52])
      0x00004aec: e7e1    	b       -62 (0x00004ab2)
      0x00004aee: f8d9e150	ldr.w   lr, [r9, #336]  ; pResolveString
      0x00004af2: 1c38    	mov     r0, r7
      0x00004af4: 218a    	movs    r1, #138
      0x00004af6: 47f0    	blx     lr
      suspend point dex PC: 0x0002
      GC map objects:  v0 (r5), v2 ([sp + #52])
      0x00004af8: e7e1    	b       -62 (0x00004abe)
      0x00004afa: f8d9e230	ldr.w   lr, [r9, #560]  ; pTestSuspend
      0x00004afe: 47f0    	blx     lr
      suspend point dex PC: 0x0007
      0x00004b00: e7ec    	b       -40 (0x00004adc)
      0x00004b02: 0000    	lsls    r0, r0, #0
  6: void com.weidian.sample.MainActivity.method2() (dex_method_idx=38)
    DEX CODE:
      0x0000: const-string v0, "TAG" // string@67
      0x0002: const-string v1, "method2" // string@139
      0x0004: invoke-static {v0, v1}, int android.util.Log.d(java.lang.String, java.lang.String) // method@13
      0x0007: return-void
    OatMethodOffsets (offset=0x00002af8)
      code_offset: 0x00004b25 
      gc_map: (offset=0x00002cd3)
    OatQuickMethodHeader (offset=0x00004b08)
      mapping_table: (offset=0x000030d6)
      vmap_table: (offset=0x00003321)
      v0/r5, v1/r6, v65534/r7, v65535/r15
    QuickMethodFrameInfo
      frame_size_in_bytes: 48
      core_spill_mask: 0x000080e0 (r5, r6, r7, r15)
      fp_spill_mask: 0x00000000 
    CODE: (code_offset=0x00004b25 size_offset=0x00004b20 size=112)...
      0x00004b24: f5bd5c00	subs    r12, sp, #8192
      0x00004b28: f8dcc000	ldr.w   r12, [r12, #0]
      suspend point dex PC: 0x0000
      GC map objects:  v2 ([sp + #52])
      0x00004b2c: e92d40e0	push    {r5, r6, r7, lr}
      0x00004b30: b088    	sub     sp, sp, #32
      0x00004b32: 1c07    	mov     r7, r0
      0x00004b34: 9000    	str     r0, [sp, #0]
      0x00004b36: 910d    	str     r1, [sp, #52]
      0x00004b38: 68b8    	ldr     r0, [r7, #8]
      0x00004b3a: 6940    	ldr     r0, [r0, #20]
      0x00004b3c: f8d00118	ldr.w   r0, [r0, #280]
      0x00004b40: b1b8    	cbz     r0, +46 (0x00004b72)
      0x00004b42: 1c05    	mov     r5, r0
      0x00004b44: 68b8    	ldr     r0, [r7, #8]
      0x00004b46: 6940    	ldr     r0, [r0, #20]
      0x00004b48: f8d00238	ldr.w   r0, [r0, #568]
      0x00004b4c: b1b8    	cbz     r0, +46 (0x00004b7e)
      0x00004b4e: 1c06    	mov     r6, r0
      0x00004b50: f24a5e5d	movw    lr, #42333
      0x00004b54: f2c73e25	movt    lr, #29477
      0x00004b58: f2457088	movw    r0, #22408
      0x00004b5c: f6c670e8	movt    r0, #28648
      0x00004b60: 1c29    	mov     r1, r5
      0x00004b62: 1c32    	mov     r2, r6
      0x00004b64: 47f0    	blx     lr
      suspend point dex PC: 0x0004
      GC map objects:  v0 (r5), v1 (r6), v2 ([sp + #52])
      0x00004b66: 3c01    	subs    r4, #1
      0x00004b68: f000800f	beq.w   +30 (0x00004b8a)
      0x00004b6c: b008    	add     sp, sp, #32
      0x00004b6e: e8bd80e0	pop     {r5, r6, r7, pc}
      0x00004b72: f8d9e150	ldr.w   lr, [r9, #336]  ; pResolveString
      0x00004b76: 1c38    	mov     r0, r7
      0x00004b78: 2143    	movs    r1, #67
      0x00004b7a: 47f0    	blx     lr
      suspend point dex PC: 0x0000
      GC map objects:  v2 ([sp + #52])
      0x00004b7c: e7e1    	b       -62 (0x00004b42)
      0x00004b7e: f8d9e150	ldr.w   lr, [r9, #336]  ; pResolveString
      0x00004b82: 1c38    	mov     r0, r7
      0x00004b84: 218b    	movs    r1, #139
      0x00004b86: 47f0    	blx     lr
      suspend point dex PC: 0x0002
      GC map objects:  v0 (r5), v2 ([sp + #52])
      0x00004b88: e7e1    	b       -62 (0x00004b4e)
      0x00004b8a: f8d9e230	ldr.w   lr, [r9, #560]  ; pTestSuspend
      0x00004b8e: 47f0    	blx     lr
      suspend point dex PC: 0x0007
      0x00004b90: e7ec    	b       -40 (0x00004b6c)
      0x00004b92: 0000    	lsls    r0, r0, #0
  7: void com.weidian.sample.MainActivity.method3() (dex_method_idx=39)
    DEX CODE:
      0x0000: const-string v0, "TAG" // string@67
      0x0002: const-string v1, "method3" // string@140
      0x0004: invoke-static {v0, v1}, int android.util.Log.d(java.lang.String, java.lang.String) // method@13
      0x0007: return-void
    OatMethodOffsets (offset=0x00002afc)
      code_offset: 0x00004bb5 
      gc_map: (offset=0x00002cd3)
    OatQuickMethodHeader (offset=0x00004b98)
      mapping_table: (offset=0x000030d6)
      vmap_table: (offset=0x00003321)
      v0/r5, v1/r6, v65534/r7, v65535/r15
    QuickMethodFrameInfo
      frame_size_in_bytes: 48
      core_spill_mask: 0x000080e0 (r5, r6, r7, r15)
      fp_spill_mask: 0x00000000 
    CODE: (code_offset=0x00004bb5 size_offset=0x00004bb0 size=112)...
      0x00004bb4: f5bd5c00	subs    r12, sp, #8192
      0x00004bb8: f8dcc000	ldr.w   r12, [r12, #0]
      suspend point dex PC: 0x0000
      GC map objects:  v2 ([sp + #52])
      0x00004bbc: e92d40e0	push    {r5, r6, r7, lr}
      0x00004bc0: b088    	sub     sp, sp, #32
      0x00004bc2: 1c07    	mov     r7, r0
      0x00004bc4: 9000    	str     r0, [sp, #0]
      0x00004bc6: 910d    	str     r1, [sp, #52]
      0x00004bc8: 68b8    	ldr     r0, [r7, #8]
      0x00004bca: 6940    	ldr     r0, [r0, #20]
      0x00004bcc: f8d00118	ldr.w   r0, [r0, #280]
      0x00004bd0: b1b8    	cbz     r0, +46 (0x00004c02)
      0x00004bd2: 1c05    	mov     r5, r0
      0x00004bd4: 68b8    	ldr     r0, [r7, #8]
      0x00004bd6: 6940    	ldr     r0, [r0, #20]
      0x00004bd8: f8d0023c	ldr.w   r0, [r0, #572]
      0x00004bdc: b1b8    	cbz     r0, +46 (0x00004c0e)
      0x00004bde: 1c06    	mov     r6, r0
      0x00004be0: f24a5e5d	movw    lr, #42333
      0x00004be4: f2c73e25	movt    lr, #29477
      0x00004be8: f2457088	movw    r0, #22408
      0x00004bec: f6c670e8	movt    r0, #28648
      0x00004bf0: 1c29    	mov     r1, r5
      0x00004bf2: 1c32    	mov     r2, r6
      0x00004bf4: 47f0    	blx     lr
      suspend point dex PC: 0x0004
      GC map objects:  v0 (r5), v1 (r6), v2 ([sp + #52])
      0x00004bf6: 3c01    	subs    r4, #1
      0x00004bf8: f000800f	beq.w   +30 (0x00004c1a)
      0x00004bfc: b008    	add     sp, sp, #32
      0x00004bfe: e8bd80e0	pop     {r5, r6, r7, pc}
      0x00004c02: f8d9e150	ldr.w   lr, [r9, #336]  ; pResolveString
      0x00004c06: 1c38    	mov     r0, r7
      0x00004c08: 2143    	movs    r1, #67
      0x00004c0a: 47f0    	blx     lr
      suspend point dex PC: 0x0000
      GC map objects:  v2 ([sp + #52])
      0x00004c0c: e7e1    	b       -62 (0x00004bd2)
      0x00004c0e: f8d9e150	ldr.w   lr, [r9, #336]  ; pResolveString
      0x00004c12: 1c38    	mov     r0, r7
      0x00004c14: 218c    	movs    r1, #140
      0x00004c16: 47f0    	blx     lr
      suspend point dex PC: 0x0002
      GC map objects:  v0 (r5), v2 ([sp + #52])
      0x00004c18: e7e1    	b       -62 (0x00004bde)
      0x00004c1a: f8d9e230	ldr.w   lr, [r9, #560]  ; pTestSuspend
      0x00004c1e: 47f0    	blx     lr
      suspend point dex PC: 0x0007
      0x00004c20: e7ec    	b       -40 (0x00004bfc)
      0x00004c22: 0000    	lsls    r0, r0, #0
  8: void com.weidian.sample.MainActivity.method4() (dex_method_idx=40)
    DEX CODE:
      0x0000: const-string v0, "TAG" // string@67
      0x0002: const-string v1, "method4" // string@141
      0x0004: invoke-static {v0, v1}, int android.util.Log.d(java.lang.String, java.lang.String) // method@13
      0x0007: return-void
    OatMethodOffsets (offset=0x00002b00)
      code_offset: 0x00004c45 
      gc_map: (offset=0x00002cd3)
    OatQuickMethodHeader (offset=0x00004c28)
      mapping_table: (offset=0x000030d6)
      vmap_table: (offset=0x00003321)
      v0/r5, v1/r6, v65534/r7, v65535/r15
    QuickMethodFrameInfo
      frame_size_in_bytes: 48
      core_spill_mask: 0x000080e0 (r5, r6, r7, r15)
      fp_spill_mask: 0x00000000 
    CODE: (code_offset=0x00004c45 size_offset=0x00004c40 size=112)...
      0x00004c44: f5bd5c00	subs    r12, sp, #8192
      0x00004c48: f8dcc000	ldr.w   r12, [r12, #0]
      suspend point dex PC: 0x0000
      GC map objects:  v2 ([sp + #52])
      0x00004c4c: e92d40e0	push    {r5, r6, r7, lr}
      0x00004c50: b088    	sub     sp, sp, #32
      0x00004c52: 1c07    	mov     r7, r0
      0x00004c54: 9000    	str     r0, [sp, #0]
      0x00004c56: 910d    	str     r1, [sp, #52]
      0x00004c58: 68b8    	ldr     r0, [r7, #8]
      0x00004c5a: 6940    	ldr     r0, [r0, #20]
      0x00004c5c: f8d00118	ldr.w   r0, [r0, #280]
      0x00004c60: b1b8    	cbz     r0, +46 (0x00004c92)
      0x00004c62: 1c05    	mov     r5, r0
      0x00004c64: 68b8    	ldr     r0, [r7, #8]
      0x00004c66: 6940    	ldr     r0, [r0, #20]
      0x00004c68: f8d00240	ldr.w   r0, [r0, #576]
      0x00004c6c: b1b8    	cbz     r0, +46 (0x00004c9e)
      0x00004c6e: 1c06    	mov     r6, r0
      0x00004c70: f24a5e5d	movw    lr, #42333
      0x00004c74: f2c73e25	movt    lr, #29477
      0x00004c78: f2457088	movw    r0, #22408
      0x00004c7c: f6c670e8	movt    r0, #28648
      0x00004c80: 1c29    	mov     r1, r5
      0x00004c82: 1c32    	mov     r2, r6
      0x00004c84: 47f0    	blx     lr
      suspend point dex PC: 0x0004
      GC map objects:  v0 (r5), v1 (r6), v2 ([sp + #52])
      0x00004c86: 3c01    	subs    r4, #1
      0x00004c88: f000800f	beq.w   +30 (0x00004caa)
      0x00004c8c: b008    	add     sp, sp, #32
      0x00004c8e: e8bd80e0	pop     {r5, r6, r7, pc}
      0x00004c92: f8d9e150	ldr.w   lr, [r9, #336]  ; pResolveString
      0x00004c96: 1c38    	mov     r0, r7
      0x00004c98: 2143    	movs    r1, #67
      0x00004c9a: 47f0    	blx     lr
      suspend point dex PC: 0x0000
      GC map objects:  v2 ([sp + #52])
      0x00004c9c: e7e1    	b       -62 (0x00004c62)
      0x00004c9e: f8d9e150	ldr.w   lr, [r9, #336]  ; pResolveString
      0x00004ca2: 1c38    	mov     r0, r7
      0x00004ca4: 218d    	movs    r1, #141
      0x00004ca6: 47f0    	blx     lr
      suspend point dex PC: 0x0002
      GC map objects:  v0 (r5), v2 ([sp + #52])
      0x00004ca8: e7e1    	b       -62 (0x00004c6e)
      0x00004caa: f8d9e230	ldr.w   lr, [r9, #560]  ; pTestSuspend
      0x00004cae: 47f0    	blx     lr
      suspend point dex PC: 0x0007
      0x00004cb0: e7ec    	b       -40 (0x00004c8c)
      0x00004cb2: 0000    	lsls    r0, r0, #0
  9: void com.weidian.sample.MainActivity.method5() (dex_method_idx=41)
    DEX CODE:
      0x0000: const-string v0, "TAG" // string@67
      0x0002: const-string v1, "method5" // string@142
      0x0004: invoke-static {v0, v1}, int android.util.Log.d(java.lang.String, java.lang.String) // method@13
      0x0007: return-void
    OatMethodOffsets (offset=0x00002b04)
      code_offset: 0x00004cd5 
      gc_map: (offset=0x00002cd3)
    OatQuickMethodHeader (offset=0x00004cb8)
      mapping_table: (offset=0x000030d6)
      vmap_table: (offset=0x00003321)
      v0/r5, v1/r6, v65534/r7, v65535/r15
    QuickMethodFrameInfo
      frame_size_in_bytes: 48
      core_spill_mask: 0x000080e0 (r5, r6, r7, r15)
      fp_spill_mask: 0x00000000 
    CODE: (code_offset=0x00004cd5 size_offset=0x00004cd0 size=112)...
      0x00004cd4: f5bd5c00	subs    r12, sp, #8192
      0x00004cd8: f8dcc000	ldr.w   r12, [r12, #0]
      suspend point dex PC: 0x0000
      GC map objects:  v2 ([sp + #52])
      0x00004cdc: e92d40e0	push    {r5, r6, r7, lr}
      0x00004ce0: b088    	sub     sp, sp, #32
      0x00004ce2: 1c07    	mov     r7, r0
      0x00004ce4: 9000    	str     r0, [sp, #0]
      0x00004ce6: 910d    	str     r1, [sp, #52]
      0x00004ce8: 68b8    	ldr     r0, [r7, #8]
      0x00004cea: 6940    	ldr     r0, [r0, #20]
      0x00004cec: f8d00118	ldr.w   r0, [r0, #280]
      0x00004cf0: b1b8    	cbz     r0, +46 (0x00004d22)
      0x00004cf2: 1c05    	mov     r5, r0
      0x00004cf4: 68b8    	ldr     r0, [r7, #8]
      0x00004cf6: 6940    	ldr     r0, [r0, #20]
      0x00004cf8: f8d00244	ldr.w   r0, [r0, #580]
      0x00004cfc: b1b8    	cbz     r0, +46 (0x00004d2e)
      0x00004cfe: 1c06    	mov     r6, r0
      0x00004d00: f24a5e5d	movw    lr, #42333
      0x00004d04: f2c73e25	movt    lr, #29477
      0x00004d08: f2457088	movw    r0, #22408
      0x00004d0c: f6c670e8	movt    r0, #28648
      0x00004d10: 1c29    	mov     r1, r5
      0x00004d12: 1c32    	mov     r2, r6
      0x00004d14: 47f0    	blx     lr
      suspend point dex PC: 0x0004
      GC map objects:  v0 (r5), v1 (r6), v2 ([sp + #52])
      0x00004d16: 3c01    	subs    r4, #1
      0x00004d18: f000800f	beq.w   +30 (0x00004d3a)
      0x00004d1c: b008    	add     sp, sp, #32
      0x00004d1e: e8bd80e0	pop     {r5, r6, r7, pc}
      0x00004d22: f8d9e150	ldr.w   lr, [r9, #336]  ; pResolveString
      0x00004d26: 1c38    	mov     r0, r7
      0x00004d28: 2143    	movs    r1, #67
      0x00004d2a: 47f0    	blx     lr
      suspend point dex PC: 0x0000
      GC map objects:  v2 ([sp + #52])
      0x00004d2c: e7e1    	b       -62 (0x00004cf2)
      0x00004d2e: f8d9e150	ldr.w   lr, [r9, #336]  ; pResolveString
      0x00004d32: 1c38    	mov     r0, r7
      0x00004d34: 218e    	movs    r1, #142
      0x00004d36: 47f0    	blx     lr
      suspend point dex PC: 0x0002
      GC map objects:  v0 (r5), v2 ([sp + #52])
      0x00004d38: e7e1    	b       -62 (0x00004cfe)
      0x00004d3a: f8d9e230	ldr.w   lr, [r9, #560]  ; pTestSuspend
      0x00004d3e: 47f0    	blx     lr
      suspend point dex PC: 0x0007
      0x00004d40: e7ec    	b       -40 (0x00004d1c)
      0x00004d42: 0000    	lsls    r0, r0, #0
  10: void com.weidian.sample.MainActivity.onProcess() (dex_method_idx=45)
    DEX CODE:
      0x0000: new-instance v0, android.content.Intent // type@5
      0x0002: const-class v1, com.weidian.sample.ForthActivity // type@18
      0x0004: invoke-direct {v0, v2, v1}, void android.content.Intent.<init>(android.content.Context, java.lang.Class) // method@5
      0x0007: invoke-virtual {v2, v0}, void com.weidian.sample.MainActivity.startActivity(android.content.Intent) // method@50
      0x000a: return-void
    OatMethodOffsets (offset=0x00002b08)
      code_offset: 0x00004d65 
      gc_map: (offset=0x00002ce1)
    OatQuickMethodHeader (offset=0x00004d48)
      mapping_table: (offset=0x000030e2)
      vmap_table: (offset=0x0000332d)
      v65534/r5, v0/r6, v2/r7, v1/r8, v65535/r15
    QuickMethodFrameInfo
      frame_size_in_bytes: 48
      core_spill_mask: 0x000081e0 (r5, r6, r7, r8, r15)
      fp_spill_mask: 0x00000000 
    CODE: (code_offset=0x00004d65 size_offset=0x00004d60 size=112)...
      0x00004d64: f5bd5c00	subs    r12, sp, #8192
      0x00004d68: f8dcc000	ldr.w   r12, [r12, #0]
      suspend point dex PC: 0x0000
      GC map objects:  v2 (r7)
      0x00004d6c: e92d41e0	push    {r5, r6, r7, r8, lr}
      0x00004d70: b087    	sub     sp, sp, #28
      0x00004d72: 1c05    	mov     r5, r0
      0x00004d74: 9000    	str     r0, [sp, #0]
      0x00004d76: 1c0f    	mov     r7, r1
      0x00004d78: f8d9e12c	ldr.w   lr, [r9, #300]  ; pAllocObjectInitialized
      0x00004d7c: 1c29    	mov     r1, r5
      0x00004d7e: f64670e8	movw    r0, #28648
      0x00004d82: f2c70048	movt    r0, #28744
      0x00004d86: 47f0    	blx     lr
      suspend point dex PC: 0x0000
      GC map objects:  v2 (r7)
      0x00004d88: f8d9e148	ldr.w   lr, [r9, #328]  ; pInitializeTypeAndVerifyAccess
      0x00004d8c: 1c06    	mov     r6, r0
      0x00004d8e: 1c29    	mov     r1, r5
      0x00004d90: 2012    	movs    r0, #18
      0x00004d92: 47f0    	blx     lr
      suspend point dex PC: 0x0002
      GC map objects:  v0 (r6), v2 (r7)
      0x00004d94: 4680    	mov     r8, r0
      0x00004d96: f2442edd	movw    lr, #17117
      0x00004d9a: f2c73e06	movt    lr, #29446
      0x00004d9e: f24c0068	movw    r0, #49256
      0x00004da2: f6c670e1	movt    r0, #28641
      0x00004da6: 1c31    	mov     r1, r6
      0x00004da8: 1c3a    	mov     r2, r7
      0x00004daa: 4643    	mov     r3, r8
      0x00004dac: 47f0    	blx     lr
      suspend point dex PC: 0x0004
      GC map objects:  v0 (r6), v1 (r8), v2 (r7)
      0x00004dae: 1c39    	mov     r1, r7
      0x00004db0: 6808    	ldr     r0, [r1, #0]
      0x00004db2: 1c32    	mov     r2, r6
      0x00004db4: f8d00348	ldr.w   r0, [r0, #840]
      0x00004db8: f8d0e02c	ldr.w   lr, [r0, #44]
      0x00004dbc: 47f0    	blx     lr
      suspend point dex PC: 0x0007
      GC map objects:  v0 (r6), v1 (r8), v2 (r7)
      0x00004dbe: 3c01    	subs    r4, #1
      0x00004dc0: f0008003	beq.w   +6 (0x00004dca)
      0x00004dc4: b007    	add     sp, sp, #28
      0x00004dc6: e8bd81e0	pop     {r5, r6, r7, r8, pc}
      0x00004dca: f8d9e230	ldr.w   lr, [r9, #560]  ; pTestSuspend
      0x00004dce: 47f0    	blx     lr
      suspend point dex PC: 0x000a
      0x00004dd0: e7f8    	b       -16 (0x00004dc4)
      0x00004dd2: 0000    	lsls    r0, r0, #0
  11: void com.weidian.sample.MainActivity.testAdd() (dex_method_idx=59)
    DEX CODE:
      0x0000: return-void
    OatMethodOffsets (offset=0x00002b0c)
      code_offset: 0x00004df5 
      gc_map: (offset=0x00002cf1)
    OatQuickMethodHeader (offset=0x00004dd8)
      mapping_table: (offset=0x000030f0)
      vmap_table: (offset=0x00003333)
      
    QuickMethodFrameInfo
      frame_size_in_bytes: 0
      core_spill_mask: 0x00000000 
      fp_spill_mask: 0x00000000 
    CODE: (code_offset=0x00004df5 size_offset=0x00004df0 size=4)...
      0x00004df4: 4770    	bx      lr
      0x00004df6: 0000    	lsls    r0, r0, #0
  12: void com.weidian.sample.MainActivity.testAssets() (dex_method_idx=60)
    DEX CODE:
      0x0000: const-string v3, "a.json" // string@79
      0x0002: invoke-static {v6, v3}, java.lang.String com.weidian.sample.util.Utils.getStringFromAssets(android.content.Context, java.lang.String) // method@80
      0x0005: move-result-object v0
      0x0006: const-string v3, "dir/b.json" // string@102
      0x0008: invoke-static {v6, v3}, java.lang.String com.weidian.sample.util.Utils.getStringFromAssets(android.content.Context, java.lang.String) // method@80
      0x000b: move-result-object v1
      0x000c: const-string v3, "dir/c/d.txt" // string@103
      0x000e: invoke-static {v6, v3}, java.lang.String com.weidian.sample.util.Utils.getStringFromAssets(android.content.Context, java.lang.String) // method@80
      0x0011: move-result-object v2
      0x0012: iget-object v3, v6, Landroid/widget/TextView; com.weidian.sample.MainActivity.show // field@9
      0x0014: new-instance v4, java.lang.StringBuilder // type@44
      0x0016: invoke-direct {v4}, void java.lang.StringBuilder.<init>() // method@95
      0x0019: const-string v5, "fromAssets111:\n\na.json\n" // string@111
      0x001b: invoke-virtual {v4, v5}, java.lang.StringBuilder java.lang.StringBuilder.append(java.lang.String) // method@97
      0x001e: move-result-object v4
      0x001f: invoke-virtual {v4, v0}, java.lang.StringBuilder java.lang.StringBuilder.append(java.lang.String) // method@97
      0x0022: move-result-object v4
      0x0023: const-string v5, "\ndir/b.json\n" // string@0
      0x0025: invoke-virtual {v4, v5}, java.lang.StringBuilder java.lang.StringBuilder.append(java.lang.String) // method@97
      0x0028: move-result-object v4
      0x0029: invoke-virtual {v4, v1}, java.lang.StringBuilder java.lang.StringBuilder.append(java.lang.String) // method@97
      0x002c: move-result-object v4
      0x002d: const-string v5, "\ndir/c/d.txt\n" // string@1
      0x002f: invoke-virtual {v4, v5}, java.lang.StringBuilder java.lang.StringBuilder.append(java.lang.String) // method@97
      0x0032: move-result-object v4
      0x0033: invoke-virtual {v4, v2}, java.lang.StringBuilder java.lang.StringBuilder.append(java.lang.String) // method@97
      0x0036: move-result-object v4
      0x0037: invoke-virtual {v4}, java.lang.String java.lang.StringBuilder.toString() // method@98
      0x003a: move-result-object v4
      0x003b: invoke-virtual {v3, v4}, void android.widget.TextView.setText(java.lang.CharSequence) // method@18
      0x003e: return-void
    OatMethodOffsets (offset=0x00002b10)
      code_offset: 0x00004e15 
      gc_map: (offset=0x00002cf5)
    OatQuickMethodHeader (offset=0x00004df8)
      mapping_table: (offset=0x000030f2)
      vmap_table: (offset=0x00003334)
      v65534/r5, v4/r6, v3/r7, v6/r8, v5/r10, v0/r11, v65535/r15
    QuickMethodFrameInfo
      frame_size_in_bytes: 80
      core_spill_mask: 0x00008de0 (r5, r6, r7, r8, r10, r11, r15)
      fp_spill_mask: 0x00000000 
    CODE: (code_offset=0x00004e15 size_offset=0x00004e10 size=500)...
      0x00004e14: f5bd5c00	subs    r12, sp, #8192
      0x00004e18: f8dcc000	ldr.w   r12, [r12, #0]
      suspend point dex PC: 0x0000
      GC map objects:  v6 (r8)
      0x00004e1c: e92d4de0	push    {r5, r6, r7, r8, r10, r11, lr}
      0x00004e20: b08d    	sub     sp, sp, #52
      0x00004e22: 1c05    	mov     r5, r0
      0x00004e24: 9000    	str     r0, [sp, #0]
      0x00004e26: 4688    	mov     r8, r1
      0x00004e28: 68a8    	ldr     r0, [r5, #8]
      0x00004e2a: 6940    	ldr     r0, [r0, #20]
      0x00004e2c: f8d00148	ldr.w   r0, [r0, #328]
      0x00004e30: 2800    	cmp     r0, #0
      0x00004e32: f00080c1	beq.w   +386 (0x00004fb8)
      0x00004e36: f8d9e224	ldr.w   lr, [r9, #548]  ; pInvokeStaticTrampolineWithAccessCheck
      0x00004e3a: 1c07    	mov     r7, r0
      0x00004e3c: 2050    	movs    r0, #80
      0x00004e3e: 4641    	mov     r1, r8
      0x00004e40: 1c3a    	mov     r2, r7
      0x00004e42: 47f0    	blx     lr
      suspend point dex PC: 0x0002
      GC map objects:  v3 (r7), v6 (r8)
      0x00004e44: 4683    	mov     r11, r0
      0x00004e46: 68a8    	ldr     r0, [r5, #8]
      0x00004e48: 6940    	ldr     r0, [r0, #20]
      0x00004e4a: f8d001a4	ldr.w   r0, [r0, #420]
      0x00004e4e: 2800    	cmp     r0, #0
      0x00004e50: f00080b8	beq.w   +368 (0x00004fc4)
      0x00004e54: f8d9e224	ldr.w   lr, [r9, #548]  ; pInvokeStaticTrampolineWithAccessCheck
      0x00004e58: 1c07    	mov     r7, r0
      0x00004e5a: 2050    	movs    r0, #80
      0x00004e5c: 4641    	mov     r1, r8
      0x00004e5e: 1c3a    	mov     r2, r7
      0x00004e60: 47f0    	blx     lr
      suspend point dex PC: 0x0008
      GC map objects:  v0 (r11), v3 (r7), v6 (r8)
      0x00004e62: 9007    	str     r0, [sp, #28]
      0x00004e64: 68a8    	ldr     r0, [r5, #8]
      0x00004e66: 6940    	ldr     r0, [r0, #20]
      0x00004e68: f8d001a8	ldr.w   r0, [r0, #424]
      0x00004e6c: 2800    	cmp     r0, #0
      0x00004e6e: f00080af	beq.w   +350 (0x00004fd0)
      0x00004e72: f8d9e224	ldr.w   lr, [r9, #548]  ; pInvokeStaticTrampolineWithAccessCheck
      0x00004e76: 1c07    	mov     r7, r0
      0x00004e78: 2050    	movs    r0, #80
      0x00004e7a: 4641    	mov     r1, r8
      0x00004e7c: 1c3a    	mov     r2, r7
      0x00004e7e: 47f0    	blx     lr
      suspend point dex PC: 0x000e
      GC map objects:  v0 (r11), v1 ([sp + #28]), v3 (r7), v6 (r8)
      0x00004e80: f8d87124	ldr.w   r7, [r8, #292]
      0x00004e84: f8d9e12c	ldr.w   lr, [r9, #300]  ; pAllocObjectInitialized
      0x00004e88: 9008    	str     r0, [sp, #32]
      0x00004e8a: 1c29    	mov     r1, r5
      0x00004e8c: f24010e0	movw    r0, #480
      0x00004e90: f2c70040	movt    r0, #28736
      0x00004e94: 47f0    	blx     lr
      suspend point dex PC: 0x0014
      GC map objects:  v0 (r11), v1 ([sp + #28]), v2 ([sp + #32]), v3 (r7), v6 (r8)
      0x00004e96: 1c06    	mov     r6, r0
      0x00004e98: f64f6e9d	movw    lr, #65181
      0x00004e9c: f2c72e0e	movt    lr, #29198
      0x00004ea0: f64f5038	movw    r0, #64824
      0x00004ea4: f6c670d4	movt    r0, #28628
      0x00004ea8: 1c31    	mov     r1, r6
      0x00004eaa: 47f0    	blx     lr
      suspend point dex PC: 0x0016
      GC map objects:  v0 (r11), v1 ([sp + #28]), v2 ([sp + #32]), v3 (r7), v4 (r6), v6 (r8)
      0x00004eac: 68a8    	ldr     r0, [r5, #8]
      0x00004eae: 6940    	ldr     r0, [r0, #20]
      0x00004eb0: f8d001c8	ldr.w   r0, [r0, #456]
      0x00004eb4: 2800    	cmp     r0, #0
      0x00004eb6: f0008091	beq.w   +290 (0x00004fdc)
      0x00004eba: 4682    	mov     r10, r0
      0x00004ebc: f6424e4d	movw    lr, #11341
      0x00004ec0: f2c72e0f	movt    lr, #29199
      0x00004ec4: f2401028	movw    r0, #296
      0x00004ec8: f6c670d5	movt    r0, #28629
      0x00004ecc: 1c31    	mov     r1, r6
      0x00004ece: 4652    	mov     r2, r10
      0x00004ed0: 47f0    	blx     lr
      suspend point dex PC: 0x001b
      GC map objects:  v0 (r11), v1 ([sp + #28]), v2 ([sp + #32]), v3 (r7), v4 (r6), v5 (r10), v6 (r8)
      0x00004ed2: 1c06    	mov     r6, r0
      0x00004ed4: f6424e4d	movw    lr, #11341
      0x00004ed8: f2c72e0f	movt    lr, #29199
      0x00004edc: f2401028	movw    r0, #296
      0x00004ee0: f6c670d5	movt    r0, #28629
      0x00004ee4: 1c31    	mov     r1, r6
      0x00004ee6: 465a    	mov     r2, r11
      0x00004ee8: f8d1c000	ldr.w   r12, [r1, #0]
      suspend point dex PC: 0x001f
      GC map objects:  v0 (r11), v1 ([sp + #28]), v2 ([sp + #32]), v3 (r7), v4 (r6), v5 (r10), v6 (r8)
      0x00004eec: 47f0    	blx     lr
      suspend point dex PC: 0x001f
      GC map objects:  v0 (r11), v1 ([sp + #28]), v2 ([sp + #32]), v3 (r7), v4 (r6), v5 (r10), v6 (r8)
      0x00004eee: 1c06    	mov     r6, r0
      0x00004ef0: 68a8    	ldr     r0, [r5, #8]
      0x00004ef2: 6940    	ldr     r0, [r0, #20]
      0x00004ef4: 68c0    	ldr     r0, [r0, #12]
      0x00004ef6: 2800    	cmp     r0, #0
      0x00004ef8: d076    	beq     +236 (0x00004fe8)
      0x00004efa: 4682    	mov     r10, r0
      0x00004efc: f6424e4d	movw    lr, #11341
      0x00004f00: f2c72e0f	movt    lr, #29199
      0x00004f04: f2401028	movw    r0, #296
      0x00004f08: f6c670d5	movt    r0, #28629
      0x00004f0c: 1c31    	mov     r1, r6
      0x00004f0e: 4652    	mov     r2, r10
      0x00004f10: f8d1c000	ldr.w   r12, [r1, #0]
      suspend point dex PC: 0x0025
      GC map objects:  v0 (r11), v1 ([sp + #28]), v2 ([sp + #32]), v3 (r7), v4 (r6), v5 (r10), v6 (r8)
      0x00004f14: 47f0    	blx     lr
      suspend point dex PC: 0x0025
      GC map objects:  v0 (r11), v1 ([sp + #28]), v2 ([sp + #32]), v3 (r7), v4 (r6), v5 (r10), v6 (r8)
      0x00004f16: 9a07    	ldr     r2, [sp, #28]
      0x00004f18: 1c06    	mov     r6, r0
      0x00004f1a: f6424e4d	movw    lr, #11341
      0x00004f1e: f2c72e0f	movt    lr, #29199
      0x00004f22: f2401028	movw    r0, #296
      0x00004f26: f6c670d5	movt    r0, #28629
      0x00004f2a: 1c31    	mov     r1, r6
      0x00004f2c: f8d1c000	ldr.w   r12, [r1, #0]
      suspend point dex PC: 0x0029
      GC map objects:  v0 (r11), v1 ([sp + #28]), v2 ([sp + #32]), v3 (r7), v4 (r6), v5 (r10), v6 (r8)
      0x00004f30: 47f0    	blx     lr
      suspend point dex PC: 0x0029
      GC map objects:  v0 (r11), v1 ([sp + #28]), v2 ([sp + #32]), v3 (r7), v4 (r6), v5 (r10), v6 (r8)
      0x00004f32: 1c06    	mov     r6, r0
      0x00004f34: 68a8    	ldr     r0, [r5, #8]
      0x00004f36: 6940    	ldr     r0, [r0, #20]
      0x00004f38: 6900    	ldr     r0, [r0, #16]
      0x00004f3a: 2800    	cmp     r0, #0
      0x00004f3c: d05a    	beq     +180 (0x00004ff4)
      0x00004f3e: 4682    	mov     r10, r0
      0x00004f40: f6424e4d	movw    lr, #11341
      0x00004f44: f2c72e0f	movt    lr, #29199
      0x00004f48: f2401028	movw    r0, #296
      0x00004f4c: f6c670d5	movt    r0, #28629
      0x00004f50: 1c31    	mov     r1, r6
      0x00004f52: 4652    	mov     r2, r10
      0x00004f54: f8d1c000	ldr.w   r12, [r1, #0]
      suspend point dex PC: 0x002f
      GC map objects:  v0 (r11), v1 ([sp + #28]), v2 ([sp + #32]), v3 (r7), v4 (r6), v5 (r10), v6 (r8)
      0x00004f58: 47f0    	blx     lr
      suspend point dex PC: 0x002f
      GC map objects:  v0 (r11), v1 ([sp + #28]), v2 ([sp + #32]), v3 (r7), v4 (r6), v5 (r10), v6 (r8)
      0x00004f5a: 9a08    	ldr     r2, [sp, #32]
      0x00004f5c: 1c06    	mov     r6, r0
      0x00004f5e: f6424e4d	movw    lr, #11341
      0x00004f62: f2c72e0f	movt    lr, #29199
      0x00004f66: f2401028	movw    r0, #296
      0x00004f6a: f6c670d5	movt    r0, #28629
      0x00004f6e: 1c31    	mov     r1, r6
      0x00004f70: f8d1c000	ldr.w   r12, [r1, #0]
      suspend point dex PC: 0x0033
      GC map objects:  v0 (r11), v1 ([sp + #28]), v2 ([sp + #32]), v3 (r7), v4 (r6), v5 (r10), v6 (r8)
      0x00004f74: 47f0    	blx     lr
      suspend point dex PC: 0x0033
      GC map objects:  v0 (r11), v1 ([sp + #28]), v2 ([sp + #32]), v3 (r7), v4 (r6), v5 (r10), v6 (r8)
      0x00004f76: 1c06    	mov     r6, r0
      0x00004f78: f6433edd	movw    lr, #15325
      0x00004f7c: f2c72e0f	movt    lr, #29199
      0x00004f80: f64f7078	movw    r0, #65400
      0x00004f84: f6c670d4	movt    r0, #28628
      0x00004f88: 1c31    	mov     r1, r6
      0x00004f8a: f8d1c000	ldr.w   r12, [r1, #0]
      suspend point dex PC: 0x0037
      GC map objects:  v0 (r11), v1 ([sp + #28]), v2 ([sp + #32]), v3 (r7), v4 (r6), v5 (r10), v6 (r8)
      0x00004f8e: 47f0    	blx     lr
      suspend point dex PC: 0x0037
      GC map objects:  v0 (r11), v1 ([sp + #28]), v2 ([sp + #32]), v3 (r7), v4 (r6), v5 (r10), v6 (r8)
      0x00004f90: 1c06    	mov     r6, r0
      0x00004f92: f6497ee5	movw    lr, #40933
      0x00004f96: f2c72e87	movt    lr, #29319
      0x00004f9a: f6415060	movw    r0, #7520
      0x00004f9e: f2c7005b	movt    r0, #28763
      0x00004fa2: 1c39    	mov     r1, r7
      0x00004fa4: 1c32    	mov     r2, r6
      0x00004fa6: f8d1c000	ldr.w   r12, [r1, #0]
      suspend point dex PC: 0x003b
      GC map objects:  v0 (r11), v1 ([sp + #28]), v2 ([sp + #32]), v3 (r7), v4 (r6), v5 (r10), v6 (r8)
      0x00004faa: 47f0    	blx     lr
      suspend point dex PC: 0x003b
      GC map objects:  v0 (r11), v1 ([sp + #28]), v2 ([sp + #32]), v3 (r7), v4 (r6), v5 (r10), v6 (r8)
      0x00004fac: 3c01    	subs    r4, #1
      0x00004fae: f0008027	beq.w   +78 (0x00005000)
      0x00004fb2: b00d    	add     sp, sp, #52
      0x00004fb4: e8bd8de0	pop     {r5, r6, r7, r8, r10, r11, pc}
      0x00004fb8: f8d9e150	ldr.w   lr, [r9, #336]  ; pResolveString
      0x00004fbc: 1c28    	mov     r0, r5
      0x00004fbe: 214f    	movs    r1, #79
      0x00004fc0: 47f0    	blx     lr
      suspend point dex PC: 0x0000
      GC map objects:  v6 (r8)
      0x00004fc2: e738    	b       -400 (0x00004e36)
      0x00004fc4: f8d9e150	ldr.w   lr, [r9, #336]  ; pResolveString
      0x00004fc8: 1c28    	mov     r0, r5
      0x00004fca: 2166    	movs    r1, #102
      0x00004fcc: 47f0    	blx     lr
      suspend point dex PC: 0x0006
      GC map objects:  v0 (r11), v3 (r7), v6 (r8)
      0x00004fce: e741    	b       -382 (0x00004e54)
      0x00004fd0: f8d9e150	ldr.w   lr, [r9, #336]  ; pResolveString
      0x00004fd4: 1c28    	mov     r0, r5
      0x00004fd6: 2167    	movs    r1, #103
      0x00004fd8: 47f0    	blx     lr
      suspend point dex PC: 0x000c
      GC map objects:  v0 (r11), v1 ([sp + #28]), v3 (r7), v6 (r8)
      0x00004fda: e74a    	b       -364 (0x00004e72)
      0x00004fdc: f8d9e150	ldr.w   lr, [r9, #336]  ; pResolveString
      0x00004fe0: 1c28    	mov     r0, r5
      0x00004fe2: 216f    	movs    r1, #111
      0x00004fe4: 47f0    	blx     lr
      suspend point dex PC: 0x0019
      GC map objects:  v0 (r11), v1 ([sp + #28]), v2 ([sp + #32]), v3 (r7), v4 (r6), v6 (r8)
      0x00004fe6: e768    	b       -304 (0x00004eba)
      0x00004fe8: f8d9e150	ldr.w   lr, [r9, #336]  ; pResolveString
      0x00004fec: 1c28    	mov     r0, r5
      0x00004fee: 2100    	movs    r1, #0
      0x00004ff0: 47f0    	blx     lr
      suspend point dex PC: 0x0023
      GC map objects:  v0 (r11), v1 ([sp + #28]), v2 ([sp + #32]), v3 (r7), v4 (r6), v5 (r10), v6 (r8)
      0x00004ff2: e782    	b       -252 (0x00004efa)
      0x00004ff4: f8d9e150	ldr.w   lr, [r9, #336]  ; pResolveString
      0x00004ff8: 1c28    	mov     r0, r5
      0x00004ffa: 2101    	movs    r1, #1
      0x00004ffc: 47f0    	blx     lr
      suspend point dex PC: 0x002d
      GC map objects:  v0 (r11), v1 ([sp + #28]), v2 ([sp + #32]), v3 (r7), v4 (r6), v5 (r10), v6 (r8)
      0x00004ffe: e79e    	b       -196 (0x00004f3e)
      0x00005000: f8d9e230	ldr.w   lr, [r9, #560]  ; pTestSuspend
      0x00005004: 47f0    	blx     lr
      suspend point dex PC: 0x003e
      0x00005006: e7d4    	b       -88 (0x00004fb2)
  13: void com.weidian.sample.MainActivity.testImageView() (dex_method_idx=61)
    DEX CODE:
      0x0000: iget-object v0, v2, Landroid/widget/ImageView; com.weidian.sample.MainActivity.imageViewTestImage // field@3
      0x0002: const v1, #+2130837579
      0x0005: invoke-virtual {v0, v1}, void android.widget.ImageView.setImageResource(int) // method@17
      0x0008: return-void
    OatMethodOffsets (offset=0x00002b14)
      code_offset: 0x00005025 
      gc_map: (offset=0x00002d4d)
    OatQuickMethodHeader (offset=0x00005008)
      mapping_table: (offset=0x0000312c)
      vmap_table: (offset=0x0000333c)
      v0/r5, v1/r6, v2/r7, v65534/r8, v65535/r15
    QuickMethodFrameInfo
      frame_size_in_bytes: 48
      core_spill_mask: 0x000081e0 (r5, r6, r7, r8, r15)
      fp_spill_mask: 0x00000000 
    CODE: (code_offset=0x00005025 size_offset=0x00005020 size=68)...
      0x00005024: f5bd5c00	subs    r12, sp, #8192
      0x00005028: f8dcc000	ldr.w   r12, [r12, #0]
      suspend point dex PC: 0x0000
      GC map objects:  v2 (r7)
      0x0000502c: e92d41e0	push    {r5, r6, r7, r8, lr}
      0x00005030: b087    	sub     sp, sp, #28
      0x00005032: 4680    	mov     r8, r0
      0x00005034: 9000    	str     r0, [sp, #0]
      0x00005036: 1c0f    	mov     r7, r1
      0x00005038: f8d7510c	ldr.w   r5, [r7, #268]
      0x0000503c: f240064b	movw    r6, #75
      0x00005040: f6c77602	movt    r6, #32514
      0x00005044: 1c29    	mov     r1, r5
      0x00005046: 1c32    	mov     r2, r6
      0x00005048: 6808    	ldr     r0, [r1, #0]
      suspend point dex PC: 0x0005
      GC map objects:  v0 (r5), v2 (r7)
      0x0000504a: f8d00c04	ldr.w   r0, [r0, #3076]
      0x0000504e: f8d0e02c	ldr.w   lr, [r0, #44]
      0x00005052: 47f0    	blx     lr
      suspend point dex PC: 0x0005
      GC map objects:  v0 (r5), v2 (r7)
      0x00005054: 3c01    	subs    r4, #1
      0x00005056: f0008003	beq.w   +6 (0x00005060)
      0x0000505a: b007    	add     sp, sp, #28
      0x0000505c: e8bd81e0	pop     {r5, r6, r7, r8, pc}
      0x00005060: f8d9e230	ldr.w   lr, [r9, #560]  ; pTestSuspend
      0x00005064: 47f0    	blx     lr
      suspend point dex PC: 0x0008
      0x00005066: e7f8    	b       -16 (0x0000505a)
  14: void com.weidian.sample.MainActivity.testJni() (dex_method_idx=62)
    DEX CODE:
      0x0000: invoke-static {}, java.lang.String com.weidian.sample.jni.JniTest.getStaticName() // method@74
      0x0003: move-result-object v2
      0x0004: new-instance v0, com.weidian.sample.jni.JniTest // type@26
      0x0006: invoke-direct {v0}, void com.weidian.sample.jni.JniTest.<init>() // method@72
      0x0009: invoke-virtual {v0}, java.lang.String com.weidian.sample.jni.JniTest.getName() // method@73
      0x000c: move-result-object v1
      0x000d: iget-object v3, v6, Landroid/widget/TextView; com.weidian.sample.MainActivity.show // field@9
      0x000f: new-instance v4, java.lang.StringBuilder // type@44
      0x0011: invoke-direct {v4}, void java.lang.StringBuilder.<init>() // method@95
      0x0014: const-string v5, "fromJni:\n\nstaticName\n" // string@112
      0x0016: invoke-virtual {v4, v5}, java.lang.StringBuilder java.lang.StringBuilder.append(java.lang.String) // method@97
      0x0019: move-result-object v4
      0x001a: invoke-virtual {v4, v2}, java.lang.StringBuilder java.lang.StringBuilder.append(java.lang.String) // method@97
      0x001d: move-result-object v4
      0x001e: const-string v5, "\nname\n" // string@2
      0x0020: invoke-virtual {v4, v5}, java.lang.StringBuilder java.lang.StringBuilder.append(java.lang.String) // method@97
      0x0023: move-result-object v4
      0x0024: invoke-virtual {v4, v1}, java.lang.StringBuilder java.lang.StringBuilder.append(java.lang.String) // method@97
      0x0027: move-result-object v4
      0x0028: invoke-virtual {v4}, java.lang.String java.lang.StringBuilder.toString() // method@98
      0x002b: move-result-object v4
      0x002c: invoke-virtual {v3, v4}, void android.widget.TextView.setText(java.lang.CharSequence) // method@18
      0x002f: return-void
    OatMethodOffsets (offset=0x00002b18)
      code_offset: 0x00005085 
      gc_map: (offset=0x00002d59)
    OatQuickMethodHeader (offset=0x00005068)
      mapping_table: (offset=0x00003136)
      vmap_table: (offset=0x00003342)
      v65534/r5, v4/r6, v0/r7, v5/r8, v1/r10, v2/r11, v65535/r15
    QuickMethodFrameInfo
      frame_size_in_bytes: 80
      core_spill_mask: 0x00008de0 (r5, r6, r7, r8, r10, r11, r15)
      fp_spill_mask: 0x00000000 
    CODE: (code_offset=0x00005085 size_offset=0x00005080 size=340)...
      0x00005084: f5bd5c00	subs    r12, sp, #8192
      0x00005088: f8dcc000	ldr.w   r12, [r12, #0]
      suspend point dex PC: 0x0000
      GC map objects:  v6 ([sp + #84])
      0x0000508c: e92d4de0	push    {r5, r6, r7, r8, r10, r11, lr}
      0x00005090: b08d    	sub     sp, sp, #52
      0x00005092: 1c05    	mov     r5, r0
      0x00005094: 9000    	str     r0, [sp, #0]
      0x00005096: 9115    	str     r1, [sp, #84]
      0x00005098: f8d9e224	ldr.w   lr, [r9, #548]  ; pInvokeStaticTrampolineWithAccessCheck
      0x0000509c: 204a    	movs    r0, #74
      0x0000509e: 47f0    	blx     lr
      suspend point dex PC: 0x0000
      GC map objects:  v6 ([sp + #84])
      0x000050a0: f8d9e130	ldr.w   lr, [r9, #304]  ; pAllocObjectWithAccessCheck
      0x000050a4: 4683    	mov     r11, r0
      0x000050a6: 1c29    	mov     r1, r5
      0x000050a8: 201a    	movs    r0, #26
      0x000050aa: 47f0    	blx     lr
      suspend point dex PC: 0x0004
      GC map objects:  v2 (r11), v6 ([sp + #84])
      0x000050ac: f8d9e21c	ldr.w   lr, [r9, #540]  ; pInvokeDirectTrampolineWithAccessCheck
      0x000050b0: 1c07    	mov     r7, r0
      0x000050b2: 2048    	movs    r0, #72
      0x000050b4: 1c39    	mov     r1, r7
      0x000050b6: 47f0    	blx     lr
      suspend point dex PC: 0x0006
      GC map objects:  v0 (r7), v2 (r11), v6 ([sp + #84])
      0x000050b8: f8d9e22c	ldr.w   lr, [r9, #556]  ; pInvokeVirtualTrampolineWithAccessCheck
      0x000050bc: 2049    	movs    r0, #73
      0x000050be: 1c39    	mov     r1, r7
      0x000050c0: 47f0    	blx     lr
      suspend point dex PC: 0x0009
      GC map objects:  v0 (r7), v2 (r11), v6 ([sp + #84])
      0x000050c2: 9a15    	ldr     r2, [sp, #84]
      0x000050c4: 4682    	mov     r10, r0
      0x000050c6: f8d9e12c	ldr.w   lr, [r9, #300]  ; pAllocObjectInitialized
      0x000050ca: f8d23124	ldr.w   r3, [r2, #292]
      0x000050ce: 9309    	str     r3, [sp, #36]
      0x000050d0: 1c29    	mov     r1, r5
      0x000050d2: f24010e0	movw    r0, #480
      0x000050d6: f2c70040	movt    r0, #28736
      0x000050da: 47f0    	blx     lr
      suspend point dex PC: 0x000f
      GC map objects:  v0 (r7), v1 (r10), v2 (r11), v3 ([sp + #36]), v6 ([sp + #84])
      0x000050dc: 1c06    	mov     r6, r0
      0x000050de: f64f6e9d	movw    lr, #65181
      0x000050e2: f2c72e0e	movt    lr, #29198
      0x000050e6: f64f5038	movw    r0, #64824
      0x000050ea: f6c670d4	movt    r0, #28628
      0x000050ee: 1c31    	mov     r1, r6
      0x000050f0: 47f0    	blx     lr
      suspend point dex PC: 0x0011
      GC map objects:  v0 (r7), v1 (r10), v2 (r11), v3 ([sp + #36]), v4 (r6), v6 ([sp + #84])
      0x000050f2: 68a8    	ldr     r0, [r5, #8]
      0x000050f4: 6940    	ldr     r0, [r0, #20]
      0x000050f6: f8d001cc	ldr.w   r0, [r0, #460]
      0x000050fa: 2800    	cmp     r0, #0
      0x000050fc: d05c    	beq     +184 (0x000051b8)
      0x000050fe: 4680    	mov     r8, r0
      0x00005100: f6424e4d	movw    lr, #11341
      0x00005104: f2c72e0f	movt    lr, #29199
      0x00005108: f2401028	movw    r0, #296
      0x0000510c: f6c670d5	movt    r0, #28629
      0x00005110: 1c31    	mov     r1, r6
      0x00005112: 4642    	mov     r2, r8
      0x00005114: 47f0    	blx     lr
      suspend point dex PC: 0x0016
      GC map objects:  v0 (r7), v1 (r10), v2 (r11), v3 ([sp + #36]), v4 (r6), v5 (r8), v6 ([sp + #84])
      0x00005116: 1c06    	mov     r6, r0
      0x00005118: f6424e4d	movw    lr, #11341
      0x0000511c: f2c72e0f	movt    lr, #29199
      0x00005120: f2401028	movw    r0, #296
      0x00005124: f6c670d5	movt    r0, #28629
      0x00005128: 1c31    	mov     r1, r6
      0x0000512a: 465a    	mov     r2, r11
      0x0000512c: f8d1c000	ldr.w   r12, [r1, #0]
      suspend point dex PC: 0x001a
      GC map objects:  v0 (r7), v1 (r10), v2 (r11), v3 ([sp + #36]), v4 (r6), v5 (r8), v6 ([sp + #84])
      0x00005130: 47f0    	blx     lr
      suspend point dex PC: 0x001a
      GC map objects:  v0 (r7), v1 (r10), v2 (r11), v3 ([sp + #36]), v4 (r6), v5 (r8), v6 ([sp + #84])
      0x00005132: 1c06    	mov     r6, r0
      0x00005134: 68a8    	ldr     r0, [r5, #8]
      0x00005136: 6940    	ldr     r0, [r0, #20]
      0x00005138: 6940    	ldr     r0, [r0, #20]
      0x0000513a: 2800    	cmp     r0, #0
      0x0000513c: d042    	beq     +132 (0x000051c4)
      0x0000513e: 4680    	mov     r8, r0
      0x00005140: f6424e4d	movw    lr, #11341
      0x00005144: f2c72e0f	movt    lr, #29199
      0x00005148: f2401028	movw    r0, #296
      0x0000514c: f6c670d5	movt    r0, #28629
      0x00005150: 1c31    	mov     r1, r6
      0x00005152: 4642    	mov     r2, r8
      0x00005154: f8d1c000	ldr.w   r12, [r1, #0]
      suspend point dex PC: 0x0020
      GC map objects:  v0 (r7), v1 (r10), v2 (r11), v3 ([sp + #36]), v4 (r6), v5 (r8), v6 ([sp + #84])
      0x00005158: 47f0    	blx     lr
      suspend point dex PC: 0x0020
      GC map objects:  v0 (r7), v1 (r10), v2 (r11), v3 ([sp + #36]), v4 (r6), v5 (r8), v6 ([sp + #84])
      0x0000515a: 1c06    	mov     r6, r0
      0x0000515c: f6424e4d	movw    lr, #11341
      0x00005160: f2c72e0f	movt    lr, #29199
      0x00005164: f2401028	movw    r0, #296
      0x00005168: f6c670d5	movt    r0, #28629
      0x0000516c: 1c31    	mov     r1, r6
      0x0000516e: 4652    	mov     r2, r10
      0x00005170: f8d1c000	ldr.w   r12, [r1, #0]
      suspend point dex PC: 0x0024
      GC map objects:  v0 (r7), v1 (r10), v2 (r11), v3 ([sp + #36]), v4 (r6), v5 (r8), v6 ([sp + #84])
      0x00005174: 47f0    	blx     lr
      suspend point dex PC: 0x0024
      GC map objects:  v0 (r7), v1 (r10), v2 (r11), v3 ([sp + #36]), v4 (r6), v5 (r8), v6 ([sp + #84])
      0x00005176: 1c06    	mov     r6, r0
      0x00005178: f6433edd	movw    lr, #15325
      0x0000517c: f2c72e0f	movt    lr, #29199
      0x00005180: f64f7078	movw    r0, #65400
      0x00005184: f6c670d4	movt    r0, #28628
      0x00005188: 1c31    	mov     r1, r6
      0x0000518a: f8d1c000	ldr.w   r12, [r1, #0]
      suspend point dex PC: 0x0028
      GC map objects:  v0 (r7), v1 (r10), v2 (r11), v3 ([sp + #36]), v4 (r6), v5 (r8), v6 ([sp + #84])
      0x0000518e: 47f0    	blx     lr
      suspend point dex PC: 0x0028
      GC map objects:  v0 (r7), v1 (r10), v2 (r11), v3 ([sp + #36]), v4 (r6), v5 (r8), v6 ([sp + #84])
      0x00005190: 9909    	ldr     r1, [sp, #36]
      0x00005192: 1c06    	mov     r6, r0
      0x00005194: f6497ee5	movw    lr, #40933
      0x00005198: f2c72e87	movt    lr, #29319
      0x0000519c: f6415060	movw    r0, #7520
      0x000051a0: f2c7005b	movt    r0, #28763
      0x000051a4: 1c32    	mov     r2, r6
      0x000051a6: f8d1c000	ldr.w   r12, [r1, #0]
      suspend point dex PC: 0x002c
      GC map objects:  v0 (r7), v1 (r10), v2 (r11), v3 ([sp + #36]), v4 (r6), v5 (r8), v6 ([sp + #84])
      0x000051aa: 47f0    	blx     lr
      suspend point dex PC: 0x002c
      GC map objects:  v0 (r7), v1 (r10), v2 (r11), v3 ([sp + #36]), v4 (r6), v5 (r8), v6 ([sp + #84])
      0x000051ac: 3c01    	subs    r4, #1
      0x000051ae: f000800f	beq.w   +30 (0x000051d0)
      0x000051b2: b00d    	add     sp, sp, #52
      0x000051b4: e8bd8de0	pop     {r5, r6, r7, r8, r10, r11, pc}
      0x000051b8: f8d9e150	ldr.w   lr, [r9, #336]  ; pResolveString
      0x000051bc: 1c28    	mov     r0, r5
      0x000051be: 2170    	movs    r1, #112
      0x000051c0: 47f0    	blx     lr
      suspend point dex PC: 0x0014
      GC map objects:  v0 (r7), v1 (r10), v2 (r11), v3 ([sp + #36]), v4 (r6), v6 ([sp + #84])
      0x000051c2: e79c    	b       -200 (0x000050fe)
      0x000051c4: f8d9e150	ldr.w   lr, [r9, #336]  ; pResolveString
      0x000051c8: 1c28    	mov     r0, r5
      0x000051ca: 2102    	movs    r1, #2
      0x000051cc: 47f0    	blx     lr
      suspend point dex PC: 0x001e
      GC map objects:  v0 (r7), v1 (r10), v2 (r11), v3 ([sp + #36]), v4 (r6), v5 (r8), v6 ([sp + #84])
      0x000051ce: e7b6    	b       -148 (0x0000513e)
      0x000051d0: f8d9e230	ldr.w   lr, [r9, #560]  ; pTestSuspend
      0x000051d4: 47f0    	blx     lr
      suspend point dex PC: 0x002f
      0x000051d6: e7ec    	b       -40 (0x000051b2)
  15: void com.weidian.sample.MainActivity.testLock(android.content.Context, boolean) (dex_method_idx=63)
    DEX CODE:
      0x0000: invoke-static {v5}, java.io.File com.weidian.sample.loader.VSwapHelper.getDataFolder(android.content.Context) // method@79
      0x0003: move-result-object v0
      0x0004: if-eqz v6, +42
      0x0006: invoke-static {}, com.weidian.sample.loader.VFileLock com.weidian.sample.loader.VFileLock.getInstance() // method@75
      0x0009: move-result-object v1
      0x000a: const/4 v2, #+0
      0x000b: invoke-virtual {v1, v0, v2}, boolean com.weidian.sample.loader.VFileLock.lock(java.io.File, boolean) // method@76
      0x000e: move-result v1
      0x000f: if-nez v1, +30
      0x0011: const-string v1, "TAG" // string@67
      0x0013: new-instance v2, java.lang.StringBuilder // type@44
      0x0015: invoke-direct {v2}, void java.lang.StringBuilder.<init>() // method@95
      0x0018: const-string v3, "Failed to get file lock for " // string@8
      0x001a: invoke-virtual {v2, v3}, java.lang.StringBuilder java.lang.StringBuilder.append(java.lang.String) // method@97
      0x001d: move-result-object v2
      0x001e: invoke-virtual {v0}, java.lang.String java.io.File.getAbsolutePath() // method@85
      0x0021: move-result-object v3
      0x0022: invoke-virtual {v2, v3}, java.lang.StringBuilder java.lang.StringBuilder.append(java.lang.String) // method@97
      0x0025: move-result-object v2
      0x0026: invoke-virtual {v2}, java.lang.String java.lang.StringBuilder.toString() // method@98
      0x0029: move-result-object v2
      0x002a: invoke-static {v1, v2}, int android.util.Log.e(java.lang.String, java.lang.String) // method@14
      0x002d: return-void
      0x002e: invoke-static {}, com.weidian.sample.loader.VFileLock com.weidian.sample.loader.VFileLock.getInstance() // method@75
      0x0031: move-result-object v1
      0x0032: invoke-virtual {v1, v0}, void com.weidian.sample.loader.VFileLock.unLock(java.io.File) // method@77
      0x0035: goto -8
    OatMethodOffsets (offset=0x00002b1c)
      code_offset: 0x000051f5 
      gc_map: (offset=0x00002d9c)
    OatQuickMethodHeader (offset=0x000051d8)
      mapping_table: (offset=0x00003162)
      vmap_table: (offset=0x0000334a)
      v65534/r5, v2/r6, v1/r7, v0/r8, v3/r10, v5/r11, v65535/r15
    QuickMethodFrameInfo
      frame_size_in_bytes: 64
      core_spill_mask: 0x00008de0 (r5, r6, r7, r8, r10, r11, r15)
      fp_spill_mask: 0x00000000 
    CODE: (code_offset=0x000051f5 size_offset=0x000051f0 size=324)...
      0x000051f4: f5bd5c00	subs    r12, sp, #8192
      0x000051f8: f8dcc000	ldr.w   r12, [r12, #0]
      suspend point dex PC: 0x0000
      GC map objects:  v4 ([sp + #68]), v5 (r11)
      0x000051fc: e92d4de0	push    {r5, r6, r7, r8, r10, r11, lr}
      0x00005200: b089    	sub     sp, sp, #36
      0x00005202: 1c05    	mov     r5, r0
      0x00005204: 9000    	str     r0, [sp, #0]
      0x00005206: 9111    	str     r1, [sp, #68]
      0x00005208: 4693    	mov     r11, r2
      0x0000520a: 9313    	str     r3, [sp, #76]
      0x0000520c: f8d9e224	ldr.w   lr, [r9, #548]  ; pInvokeStaticTrampolineWithAccessCheck
      0x00005210: 204f    	movs    r0, #79
      0x00005212: 4659    	mov     r1, r11
      0x00005214: 47f0    	blx     lr
      suspend point dex PC: 0x0000
      GC map objects:  v4 ([sp + #68]), v5 (r11)
      0x00005216: 9a13    	ldr     r2, [sp, #76]
      0x00005218: 4680    	mov     r8, r0
      0x0000521a: 2a00    	cmp     r2, #0
      0x0000521c: d06f    	beq     +222 (0x000052fe)
      0x0000521e: f8d9e224	ldr.w   lr, [r9, #548]  ; pInvokeStaticTrampolineWithAccessCheck
      0x00005222: 204b    	movs    r0, #75
      0x00005224: 47f0    	blx     lr
      suspend point dex PC: 0x0006
      GC map objects:  v0 (r8), v4 ([sp + #68]), v5 (r11)
      0x00005226: f8d9e22c	ldr.w   lr, [r9, #556]  ; pInvokeVirtualTrampolineWithAccessCheck
      0x0000522a: 1c07    	mov     r7, r0
      0x0000522c: 2600    	movs    r6, #0
      0x0000522e: 204c    	movs    r0, #76
      0x00005230: 1c39    	mov     r1, r7
      0x00005232: 4642    	mov     r2, r8
      0x00005234: 1c33    	mov     r3, r6
      0x00005236: 47f0    	blx     lr
      suspend point dex PC: 0x000b
      GC map objects:  v0 (r8), v1 (r7), v4 ([sp + #68]), v5 (r11)
      0x00005238: 1c07    	mov     r7, r0
      0x0000523a: 2f00    	cmp     r7, #0
      0x0000523c: d159    	bne     +178 (0x000052f2)
      0x0000523e: 68a8    	ldr     r0, [r5, #8]
      0x00005240: 6940    	ldr     r0, [r0, #20]
      0x00005242: f8d00118	ldr.w   r0, [r0, #280]
      0x00005246: 2800    	cmp     r0, #0
      0x00005248: d065    	beq     +202 (0x00005316)
      0x0000524a: f8d9e12c	ldr.w   lr, [r9, #300]  ; pAllocObjectInitialized
      0x0000524e: 1c07    	mov     r7, r0
      0x00005250: 1c29    	mov     r1, r5
      0x00005252: f24010e0	movw    r0, #480
      0x00005256: f2c70040	movt    r0, #28736
      0x0000525a: 47f0    	blx     lr
      suspend point dex PC: 0x0013
      GC map objects:  v0 (r8), v1 (r7), v4 ([sp + #68]), v5 (r11)
      0x0000525c: 1c06    	mov     r6, r0
      0x0000525e: f64f6e9d	movw    lr, #65181
      0x00005262: f2c72e0e	movt    lr, #29198
      0x00005266: f64f5038	movw    r0, #64824
      0x0000526a: f6c670d4	movt    r0, #28628
      0x0000526e: 1c31    	mov     r1, r6
      0x00005270: 47f0    	blx     lr
      suspend point dex PC: 0x0015
      GC map objects:  v0 (r8), v1 (r7), v2 (r6), v4 ([sp + #68]), v5 (r11)
      0x00005272: 68a8    	ldr     r0, [r5, #8]
      0x00005274: 6940    	ldr     r0, [r0, #20]
      0x00005276: 6ac0    	ldr     r0, [r0, #44]
      0x00005278: 2800    	cmp     r0, #0
      0x0000527a: d052    	beq     +164 (0x00005322)
      0x0000527c: 4682    	mov     r10, r0
      0x0000527e: f6424e4d	movw    lr, #11341
      0x00005282: f2c72e0f	movt    lr, #29199
      0x00005286: f2401028	movw    r0, #296
      0x0000528a: f6c670d5	movt    r0, #28629
      0x0000528e: 1c31    	mov     r1, r6
      0x00005290: 4652    	mov     r2, r10
      0x00005292: 47f0    	blx     lr
      suspend point dex PC: 0x001a
      GC map objects:  v0 (r8), v1 (r7), v2 (r6), v3 (r10), v4 ([sp + #68]), v5 (r11)
      0x00005294: 1c06    	mov     r6, r0
      0x00005296: 4641    	mov     r1, r8
      0x00005298: 6808    	ldr     r0, [r1, #0]
      suspend point dex PC: 0x001e
      GC map objects:  v0 (r8), v1 (r7), v2 (r6), v3 (r10), v4 ([sp + #68]), v5 (r11)
      0x0000529a: f8d001c4	ldr.w   r0, [r0, #452]
      0x0000529e: f8d0e02c	ldr.w   lr, [r0, #44]
      0x000052a2: 47f0    	blx     lr
      suspend point dex PC: 0x001e
      GC map objects:  v0 (r8), v1 (r7), v2 (r6), v3 (r10), v4 ([sp + #68]), v5 (r11)
      0x000052a4: 4682    	mov     r10, r0
      0x000052a6: f6424e4d	movw    lr, #11341
      0x000052aa: f2c72e0f	movt    lr, #29199
      0x000052ae: f2401028	movw    r0, #296
      0x000052b2: f6c670d5	movt    r0, #28629
      0x000052b6: 1c31    	mov     r1, r6
      0x000052b8: 4652    	mov     r2, r10
      0x000052ba: f8d1c000	ldr.w   r12, [r1, #0]
      suspend point dex PC: 0x0022
      GC map objects:  v0 (r8), v1 (r7), v2 (r6), v3 (r10), v4 ([sp + #68]), v5 (r11)
      0x000052be: 47f0    	blx     lr
      suspend point dex PC: 0x0022
      GC map objects:  v0 (r8), v1 (r7), v2 (r6), v3 (r10), v4 ([sp + #68]), v5 (r11)
      0x000052c0: 1c06    	mov     r6, r0
      0x000052c2: f6433edd	movw    lr, #15325
      0x000052c6: f2c72e0f	movt    lr, #29199
      0x000052ca: f64f7078	movw    r0, #65400
      0x000052ce: f6c670d4	movt    r0, #28628
      0x000052d2: 1c31    	mov     r1, r6
      0x000052d4: f8d1c000	ldr.w   r12, [r1, #0]
      suspend point dex PC: 0x0026
      GC map objects:  v0 (r8), v1 (r7), v2 (r6), v3 (r10), v4 ([sp + #68]), v5 (r11)
      0x000052d8: 47f0    	blx     lr
      suspend point dex PC: 0x0026
      GC map objects:  v0 (r8), v1 (r7), v2 (r6), v3 (r10), v4 ([sp + #68]), v5 (r11)
      0x000052da: 1c06    	mov     r6, r0
      0x000052dc: f24a6edd	movw    lr, #42717
      0x000052e0: f2c73e25	movt    lr, #29477
      0x000052e4: f24570e8	movw    r0, #22504
      0x000052e8: f6c670e8	movt    r0, #28648
      0x000052ec: 1c39    	mov     r1, r7
      0x000052ee: 1c32    	mov     r2, r6
      0x000052f0: 47f0    	blx     lr
      suspend point dex PC: 0x002a
      GC map objects:  v0 (r8), v1 (r7), v2 (r6), v3 (r10), v4 ([sp + #68]), v5 (r11)
      0x000052f2: 3c01    	subs    r4, #1
      0x000052f4: f000801b	beq.w   +54 (0x0000532e)
      0x000052f8: b009    	add     sp, sp, #36
      0x000052fa: e8bd8de0	pop     {r5, r6, r7, r8, r10, r11, pc}
      0x000052fe: f8d9e224	ldr.w   lr, [r9, #548]  ; pInvokeStaticTrampolineWithAccessCheck
      0x00005302: 204b    	movs    r0, #75
      0x00005304: 47f0    	blx     lr
      suspend point dex PC: 0x002e
      GC map objects:  v0 (r8), v4 ([sp + #68]), v5 (r11)
      0x00005306: f8d9e22c	ldr.w   lr, [r9, #556]  ; pInvokeVirtualTrampolineWithAccessCheck
      0x0000530a: 1c07    	mov     r7, r0
      0x0000530c: 204d    	movs    r0, #77
      0x0000530e: 1c39    	mov     r1, r7
      0x00005310: 4642    	mov     r2, r8
      0x00005312: 47f0    	blx     lr
      suspend point dex PC: 0x0032
      GC map objects:  v0 (r8), v1 (r7), v4 ([sp + #68]), v5 (r11)
      0x00005314: e7ed    	b       -38 (0x000052f2)
      0x00005316: f8d9e150	ldr.w   lr, [r9, #336]  ; pResolveString
      0x0000531a: 1c28    	mov     r0, r5
      0x0000531c: 2143    	movs    r1, #67
      0x0000531e: 47f0    	blx     lr
      suspend point dex PC: 0x0011
      GC map objects:  v0 (r8), v4 ([sp + #68]), v5 (r11)
      0x00005320: e793    	b       -218 (0x0000524a)
      0x00005322: f8d9e150	ldr.w   lr, [r9, #336]  ; pResolveString
      0x00005326: 1c28    	mov     r0, r5
      0x00005328: 2108    	movs    r1, #8
      0x0000532a: 47f0    	blx     lr
      suspend point dex PC: 0x0018
      GC map objects:  v0 (r8), v1 (r7), v2 (r6), v4 ([sp + #68]), v5 (r11)
      0x0000532c: e7a6    	b       -180 (0x0000527c)
      0x0000532e: f8d9e230	ldr.w   lr, [r9, #560]  ; pTestSuspend
      0x00005332: 47f0    	blx     lr
      suspend point dex PC: 0x002d
      0x00005334: e7e0    	b       -64 (0x000052f8)
      0x00005336: 0000    	lsls    r0, r0, #0
  16: void com.weidian.sample.MainActivity.testRaw() (dex_method_idx=64)
    DEX CODE:
      0x0000: const/high16 v1, #int +2131099648 // 0x7f060000
      0x0002: invoke-static {v4, v1}, java.lang.String com.weidian.sample.util.Utils.getStringFromRaw(android.content.Context, int) // method@81
      0x0005: move-result-object v0
      0x0006: iget-object v1, v4, Landroid/widget/TextView; com.weidian.sample.MainActivity.show // field@9
      0x0008: new-instance v2, java.lang.StringBuilder // type@44
      0x000a: invoke-direct {v2}, void java.lang.StringBuilder.<init>() // method@95
      0x000d: const-string v3, "fromRaw:\n\ntestraw.json\n" // string@114
      0x000f: invoke-virtual {v2, v3}, java.lang.StringBuilder java.lang.StringBuilder.append(java.lang.String) // method@97
      0x0012: move-result-object v2
      0x0013: invoke-virtual {v2, v0}, java.lang.StringBuilder java.lang.StringBuilder.append(java.lang.String) // method@97
      0x0016: move-result-object v2
      0x0017: invoke-virtual {v2}, java.lang.String java.lang.StringBuilder.toString() // method@98
      0x001a: move-result-object v2
      0x001b: invoke-virtual {v1, v2}, void android.widget.TextView.setText(java.lang.CharSequence) // method@18
      0x001e: return-void
    OatMethodOffsets (offset=0x00002b20)
      code_offset: 0x00005355 
      gc_map: (offset=0x00002dd9)
    OatQuickMethodHeader (offset=0x00005338)
      mapping_table: (offset=0x0000318a)
      vmap_table: (offset=0x00003352)
      v65534/r5, v2/r6, v1/r7, v4/r8, v0/r10, v3/r11, v65535/r15
    QuickMethodFrameInfo
      frame_size_in_bytes: 64
      core_spill_mask: 0x00008de0 (r5, r6, r7, r8, r10, r11, r15)
      fp_spill_mask: 0x00000000 
    CODE: (code_offset=0x00005355 size_offset=0x00005350 size=232)...
      0x00005354: f5bd5c00	subs    r12, sp, #8192
      0x00005358: f8dcc000	ldr.w   r12, [r12, #0]
      suspend point dex PC: 0x0000
      GC map objects:  v4 (r8)
      0x0000535c: e92d4de0	push    {r5, r6, r7, r8, r10, r11, lr}
      0x00005360: b089    	sub     sp, sp, #36
      0x00005362: 1c05    	mov     r5, r0
      0x00005364: 9000    	str     r0, [sp, #0]
      0x00005366: 4688    	mov     r8, r1
      0x00005368: f8d9e224	ldr.w   lr, [r9, #548]  ; pInvokeStaticTrampolineWithAccessCheck
      0x0000536c: f2400700	movw    r7, #0
      0x00005370: f6c77706	movt    r7, #32518
      0x00005374: 2051    	movs    r0, #81
      0x00005376: 4641    	mov     r1, r8
      0x00005378: 1c3a    	mov     r2, r7
      0x0000537a: 47f0    	blx     lr
      suspend point dex PC: 0x0002
      GC map objects:  v4 (r8)
      0x0000537c: f8d87124	ldr.w   r7, [r8, #292]
      0x00005380: f8d9e12c	ldr.w   lr, [r9, #300]  ; pAllocObjectInitialized
      0x00005384: 4682    	mov     r10, r0
      0x00005386: 1c29    	mov     r1, r5
      0x00005388: f24010e0	movw    r0, #480
      0x0000538c: f2c70040	movt    r0, #28736
      0x00005390: 47f0    	blx     lr
      suspend point dex PC: 0x0008
      GC map objects:  v0 (r10), v1 (r7), v4 (r8)
      0x00005392: 1c06    	mov     r6, r0
      0x00005394: f64f6e9d	movw    lr, #65181
      0x00005398: f2c72e0e	movt    lr, #29198
      0x0000539c: f64f5038	movw    r0, #64824
      0x000053a0: f6c670d4	movt    r0, #28628
      0x000053a4: 1c31    	mov     r1, r6
      0x000053a6: 47f0    	blx     lr
      suspend point dex PC: 0x000a
      GC map objects:  v0 (r10), v1 (r7), v2 (r6), v4 (r8)
      0x000053a8: 68a8    	ldr     r0, [r5, #8]
      0x000053aa: 6940    	ldr     r0, [r0, #20]
      0x000053ac: f8d001d4	ldr.w   r0, [r0, #468]
      0x000053b0: b3d0    	cbz     r0, +116 (0x00005428)
      0x000053b2: 4683    	mov     r11, r0
      0x000053b4: f6424e4d	movw    lr, #11341
      0x000053b8: f2c72e0f	movt    lr, #29199
      0x000053bc: f2401028	movw    r0, #296
      0x000053c0: f6c670d5	movt    r0, #28629
      0x000053c4: 1c31    	mov     r1, r6
      0x000053c6: 465a    	mov     r2, r11
      0x000053c8: 47f0    	blx     lr
      suspend point dex PC: 0x000f
      GC map objects:  v0 (r10), v1 (r7), v2 (r6), v3 (r11), v4 (r8)
      0x000053ca: 1c06    	mov     r6, r0
      0x000053cc: f6424e4d	movw    lr, #11341
      0x000053d0: f2c72e0f	movt    lr, #29199
      0x000053d4: f2401028	movw    r0, #296
      0x000053d8: f6c670d5	movt    r0, #28629
      0x000053dc: 1c31    	mov     r1, r6
      0x000053de: 4652    	mov     r2, r10
      0x000053e0: f8d1c000	ldr.w   r12, [r1, #0]
      suspend point dex PC: 0x0013
      GC map objects:  v0 (r10), v1 (r7), v2 (r6), v3 (r11), v4 (r8)
      0x000053e4: 47f0    	blx     lr
      suspend point dex PC: 0x0013
      GC map objects:  v0 (r10), v1 (r7), v2 (r6), v3 (r11), v4 (r8)
      0x000053e6: 1c06    	mov     r6, r0
      0x000053e8: f6433edd	movw    lr, #15325
      0x000053ec: f2c72e0f	movt    lr, #29199
      0x000053f0: f64f7078	movw    r0, #65400
      0x000053f4: f6c670d4	movt    r0, #28628
      0x000053f8: 1c31    	mov     r1, r6
      0x000053fa: f8d1c000	ldr.w   r12, [r1, #0]
      suspend point dex PC: 0x0017
      GC map objects:  v0 (r10), v1 (r7), v2 (r6), v3 (r11), v4 (r8)
      0x000053fe: 47f0    	blx     lr
      suspend point dex PC: 0x0017
      GC map objects:  v0 (r10), v1 (r7), v2 (r6), v3 (r11), v4 (r8)
      0x00005400: 1c06    	mov     r6, r0
      0x00005402: f6497ee5	movw    lr, #40933
      0x00005406: f2c72e87	movt    lr, #29319
      0x0000540a: f6415060	movw    r0, #7520
      0x0000540e: f2c7005b	movt    r0, #28763
      0x00005412: 1c39    	mov     r1, r7
      0x00005414: 1c32    	mov     r2, r6
      0x00005416: f8d1c000	ldr.w   r12, [r1, #0]
      suspend point dex PC: 0x001b
      GC map objects:  v0 (r10), v1 (r7), v2 (r6), v3 (r11), v4 (r8)
      0x0000541a: 47f0    	blx     lr
      suspend point dex PC: 0x001b
      GC map objects:  v0 (r10), v1 (r7), v2 (r6), v3 (r11), v4 (r8)
      0x0000541c: 3c01    	subs    r4, #1
      0x0000541e: f0008009	beq.w   +18 (0x00005434)
      0x00005422: b009    	add     sp, sp, #36
      0x00005424: e8bd8de0	pop     {r5, r6, r7, r8, r10, r11, pc}
      0x00005428: f8d9e150	ldr.w   lr, [r9, #336]  ; pResolveString
      0x0000542c: 1c28    	mov     r0, r5
      0x0000542e: 2172    	movs    r1, #114
      0x00005430: 47f0    	blx     lr
      suspend point dex PC: 0x000d
      GC map objects:  v0 (r10), v1 (r7), v2 (r6), v4 (r8)
      0x00005432: e7be    	b       -132 (0x000053b2)
      0x00005434: f8d9e230	ldr.w   lr, [r9, #560]  ; pTestSuspend
      0x00005438: 47f0    	blx     lr
      suspend point dex PC: 0x001e
      0x0000543a: e7f2    	b       -28 (0x00005422)
  17: void com.weidian.sample.MainActivity.testString() (dex_method_idx=65)
    DEX CODE:
      0x0000: iget-object v0, v2, Landroid/widget/TextView; com.weidian.sample.MainActivity.textViewTestString // field@17
      0x0002: const v1, #+2131165207
      0x0005: invoke-virtual {v2, v1}, java.lang.String com.weidian.sample.MainActivity.getString(int) // method@33
      0x0008: move-result-object v1
      0x0009: invoke-virtual {v0, v1}, void android.widget.TextView.setText(java.lang.CharSequence) // method@18
      0x000c: return-void
    OatMethodOffsets (offset=0x00002b24)
      code_offset: 0x0000545d 
      gc_map: (offset=0x00002df7)
    OatQuickMethodHeader (offset=0x00005440)
      mapping_table: (offset=0x000031a6)
      vmap_table: (offset=0x0000335a)
      v1/r5, v2/r6, v65534/r7, v0/r8, v65535/r15
    QuickMethodFrameInfo
      frame_size_in_bytes: 48
      core_spill_mask: 0x000081e0 (r5, r6, r7, r8, r15)
      fp_spill_mask: 0x00000000 
    CODE: (code_offset=0x0000545d size_offset=0x00005458 size=104)...
      0x0000545c: f5bd5c00	subs    r12, sp, #8192
      0x00005460: f8dcc000	ldr.w   r12, [r12, #0]
      suspend point dex PC: 0x0000
      GC map objects:  v2 (r6)
      0x00005464: e92d41e0	push    {r5, r6, r7, r8, lr}
      0x00005468: b087    	sub     sp, sp, #28
      0x0000546a: 1c07    	mov     r7, r0
      0x0000546c: 9000    	str     r0, [sp, #0]
      0x0000546e: 1c0e    	mov     r6, r1
      0x00005470: f8d68144	ldr.w   r8, [r6, #324]
      0x00005474: f2400517	movw    r5, #23
      0x00005478: f6c77507	movt    r5, #32519
      0x0000547c: f2496eb5	movw    lr, #38581
      0x00005480: f2c72ef8	movt    lr, #29432
      0x00005484: f24e7018	movw    r0, #59160
      0x00005488: f6c670dd	movt    r0, #28637
      0x0000548c: 1c31    	mov     r1, r6
      0x0000548e: 1c2a    	mov     r2, r5
      0x00005490: 47f0    	blx     lr
      suspend point dex PC: 0x0005
      GC map objects:  v0 (r8), v2 (r6)
      0x00005492: 1c05    	mov     r5, r0
      0x00005494: f6497ee5	movw    lr, #40933
      0x00005498: f2c72e87	movt    lr, #29319
      0x0000549c: f6415060	movw    r0, #7520
      0x000054a0: f2c7005b	movt    r0, #28763
      0x000054a4: 4641    	mov     r1, r8
      0x000054a6: 1c2a    	mov     r2, r5
      0x000054a8: f8d1c000	ldr.w   r12, [r1, #0]
      suspend point dex PC: 0x0009
      GC map objects:  v0 (r8), v1 (r5), v2 (r6)
      0x000054ac: 47f0    	blx     lr
      suspend point dex PC: 0x0009
      GC map objects:  v0 (r8), v1 (r5), v2 (r6)
      0x000054ae: 3c01    	subs    r4, #1
      0x000054b0: f0008003	beq.w   +6 (0x000054ba)
      0x000054b4: b007    	add     sp, sp, #28
      0x000054b6: e8bd81e0	pop     {r5, r6, r7, r8, pc}
      0x000054ba: f8d9e230	ldr.w   lr, [r9, #560]  ; pTestSuspend
      0x000054be: 47f0    	blx     lr
      suspend point dex PC: 0x000c
      0x000054c0: e7f8    	b       -16 (0x000054b4)
      0x000054c2: 0000    	lsls    r0, r0, #0
  18: void com.weidian.sample.MainActivity.testStringArray() (dex_method_idx=66)
    DEX CODE:
      0x0000: iget-object v0, v4, Landroid/widget/TextView; com.weidian.sample.MainActivity.textViewTestString // field@17
      0x0002: new-instance v1, java.lang.StringBuilder // type@44
      0x0004: invoke-direct {v1}, void java.lang.StringBuilder.<init>() // method@95
      0x0007: const-string v2, "array:\n" // string@84
      0x0009: invoke-virtual {v1, v2}, java.lang.StringBuilder java.lang.StringBuilder.append(java.lang.String) // method@97
      0x000c: move-result-object v1
      0x000d: invoke-virtual {v4}, android.content.res.Resources com.weidian.sample.MainActivity.getResources() // method@32
      0x0010: move-result-object v2
      0x0011: const/high16 v3, #int +2131492864 // 0x7f0c0000
      0x0013: invoke-virtual {v2, v3}, java.lang.String[] android.content.res.Resources.getStringArray(int) // method@11
      0x0016: move-result-object v2
      0x0017: invoke-static {v2}, java.util.List java.util.Arrays.asList(java.lang.Object[]) // method@99
      0x001a: move-result-object v2
      0x001b: invoke-virtual {v1, v2}, java.lang.StringBuilder java.lang.StringBuilder.append(java.lang.Object) // method@96
      0x001e: move-result-object v1
      0x001f: invoke-virtual {v1}, java.lang.String java.lang.StringBuilder.toString() // method@98
      0x0022: move-result-object v1
      0x0023: invoke-virtual {v0, v1}, void android.widget.TextView.setText(java.lang.CharSequence) // method@18
      0x0026: return-void
    OatMethodOffsets (offset=0x00002b28)
      code_offset: 0x000054e5 
      gc_map: (offset=0x00002e05)
    OatQuickMethodHeader (offset=0x000054c8)
      mapping_table: (offset=0x000031b2)
      vmap_table: (offset=0x00003360)
      v65534/r5, v1/r6, v2/r7, v4/r8, v0/r10, v3/r11, v65535/r15
    QuickMethodFrameInfo
      frame_size_in_bytes: 64
      core_spill_mask: 0x00008de0 (r5, r6, r7, r8, r10, r11, r15)
      fp_spill_mask: 0x00000000 
    CODE: (code_offset=0x000054e5 size_offset=0x000054e0 size=276)...
      0x000054e4: f5bd5c00	subs    r12, sp, #8192
      0x000054e8: f8dcc000	ldr.w   r12, [r12, #0]
      suspend point dex PC: 0x0000
      GC map objects:  v4 (r8)
      0x000054ec: e92d4de0	push    {r5, r6, r7, r8, r10, r11, lr}
      0x000054f0: b089    	sub     sp, sp, #36
      0x000054f2: 1c05    	mov     r5, r0
      0x000054f4: 9000    	str     r0, [sp, #0]
      0x000054f6: 4688    	mov     r8, r1
      0x000054f8: f8d8a144	ldr.w   r10, [r8, #324]
      0x000054fc: f8d9e12c	ldr.w   lr, [r9, #300]  ; pAllocObjectInitialized
      0x00005500: 1c29    	mov     r1, r5
      0x00005502: f24010e0	movw    r0, #480
      0x00005506: f2c70040	movt    r0, #28736
      0x0000550a: 47f0    	blx     lr
      suspend point dex PC: 0x0002
      GC map objects:  v0 (r10), v4 (r8)
      0x0000550c: 1c06    	mov     r6, r0
      0x0000550e: f64f6e9d	movw    lr, #65181
      0x00005512: f2c72e0e	movt    lr, #29198
      0x00005516: f64f5038	movw    r0, #64824
      0x0000551a: f6c670d4	movt    r0, #28628
      0x0000551e: 1c31    	mov     r1, r6
      0x00005520: 47f0    	blx     lr
      suspend point dex PC: 0x0004
      GC map objects:  v0 (r10), v1 (r6), v4 (r8)
      0x00005522: 68a8    	ldr     r0, [r5, #8]
      0x00005524: 6940    	ldr     r0, [r0, #20]
      0x00005526: f8d0015c	ldr.w   r0, [r0, #348]
      0x0000552a: 2800    	cmp     r0, #0
      0x0000552c: d05a    	beq     +180 (0x000055e4)
      0x0000552e: 1c07    	mov     r7, r0
      0x00005530: f6424e4d	movw    lr, #11341
      0x00005534: f2c72e0f	movt    lr, #29199
      0x00005538: f2401028	movw    r0, #296
      0x0000553c: f6c670d5	movt    r0, #28629
      0x00005540: 1c31    	mov     r1, r6
      0x00005542: 1c3a    	mov     r2, r7
      0x00005544: 47f0    	blx     lr
      suspend point dex PC: 0x0009
      GC map objects:  v0 (r10), v1 (r6), v2 (r7), v4 (r8)
      0x00005546: 1c06    	mov     r6, r0
      0x00005548: 4641    	mov     r1, r8
      0x0000554a: 6808    	ldr     r0, [r1, #0]
      0x0000554c: f8d0027c	ldr.w   r0, [r0, #636]
      0x00005550: f8d0e02c	ldr.w   lr, [r0, #44]
      0x00005554: 47f0    	blx     lr
      suspend point dex PC: 0x000d
      GC map objects:  v0 (r10), v1 (r6), v2 (r7), v4 (r8)
      0x00005556: 1c07    	mov     r7, r0
      0x00005558: f2400b00	movw    r11, #0
      0x0000555c: f6c77b0c	movt    r11, #32524
      0x00005560: 1c39    	mov     r1, r7
      0x00005562: 465a    	mov     r2, r11
      0x00005564: 6808    	ldr     r0, [r1, #0]
      suspend point dex PC: 0x0013
      GC map objects:  v0 (r10), v1 (r6), v2 (r7), v4 (r8)
      0x00005566: f8d0022c	ldr.w   r0, [r0, #556]
      0x0000556a: f8d0e02c	ldr.w   lr, [r0, #44]
      0x0000556e: 47f0    	blx     lr
      suspend point dex PC: 0x0013
      GC map objects:  v0 (r10), v1 (r6), v2 (r7), v4 (r8)
      0x00005570: 1c07    	mov     r7, r0
      0x00005572: f64c1e7d	movw    lr, #51581
      0x00005576: f2c72e1b	movt    lr, #29211
      0x0000557a: f64110f8	movw    r0, #6648
      0x0000557e: f6c670d7	movt    r0, #28631
      0x00005582: 1c39    	mov     r1, r7
      0x00005584: 47f0    	blx     lr
      suspend point dex PC: 0x0017
      GC map objects:  v0 (r10), v1 (r6), v2 (r7), v4 (r8)
      0x00005586: 1c07    	mov     r7, r0
      0x00005588: f6423ec5	movw    lr, #11205
      0x0000558c: f2c72e0f	movt    lr, #29199
      0x00005590: f24000f8	movw    r0, #248
      0x00005594: f6c670d5	movt    r0, #28629
      0x00005598: 1c31    	mov     r1, r6
      0x0000559a: 1c3a    	mov     r2, r7
      0x0000559c: f8d1c000	ldr.w   r12, [r1, #0]
      suspend point dex PC: 0x001b
      GC map objects:  v0 (r10), v1 (r6), v2 (r7), v4 (r8)
      0x000055a0: 47f0    	blx     lr
      suspend point dex PC: 0x001b
      GC map objects:  v0 (r10), v1 (r6), v2 (r7), v4 (r8)
      0x000055a2: 1c06    	mov     r6, r0
      0x000055a4: f6433edd	movw    lr, #15325
      0x000055a8: f2c72e0f	movt    lr, #29199
      0x000055ac: f64f7078	movw    r0, #65400
      0x000055b0: f6c670d4	movt    r0, #28628
      0x000055b4: 1c31    	mov     r1, r6
      0x000055b6: f8d1c000	ldr.w   r12, [r1, #0]
      suspend point dex PC: 0x001f
      GC map objects:  v0 (r10), v1 (r6), v2 (r7), v4 (r8)
      0x000055ba: 47f0    	blx     lr
      suspend point dex PC: 0x001f
      GC map objects:  v0 (r10), v1 (r6), v2 (r7), v4 (r8)
      0x000055bc: 1c06    	mov     r6, r0
      0x000055be: f6497ee5	movw    lr, #40933
      0x000055c2: f2c72e87	movt    lr, #29319
      0x000055c6: f6415060	movw    r0, #7520
      0x000055ca: f2c7005b	movt    r0, #28763
      0x000055ce: 4651    	mov     r1, r10
      0x000055d0: 1c32    	mov     r2, r6
      0x000055d2: f8d1c000	ldr.w   r12, [r1, #0]
      suspend point dex PC: 0x0023
      GC map objects:  v0 (r10), v1 (r6), v2 (r7), v4 (r8)
      0x000055d6: 47f0    	blx     lr
      suspend point dex PC: 0x0023
      GC map objects:  v0 (r10), v1 (r6), v2 (r7), v4 (r8)
      0x000055d8: 3c01    	subs    r4, #1
      0x000055da: f0008009	beq.w   +18 (0x000055f0)
      0x000055de: b009    	add     sp, sp, #36
      0x000055e0: e8bd8de0	pop     {r5, r6, r7, r8, r10, r11, pc}
      0x000055e4: f8d9e150	ldr.w   lr, [r9, #336]  ; pResolveString
      0x000055e8: 1c28    	mov     r0, r5
      0x000055ea: 2154    	movs    r1, #84
      0x000055ec: 47f0    	blx     lr
      suspend point dex PC: 0x0007
      GC map objects:  v0 (r10), v1 (r6), v4 (r8)
      0x000055ee: e79e    	b       -196 (0x0000552e)
      0x000055f0: f8d9e230	ldr.w   lr, [r9, #560]  ; pTestSuspend
      0x000055f4: 47f0    	blx     lr
      suspend point dex PC: 0x0026
      0x000055f6: e7f2    	b       -28 (0x000055de)
  19: void com.weidian.sample.MainActivity.testWrite(android.content.Context) (dex_method_idx=67)
    DEX CODE:
      0x0000: invoke-static {v7}, java.io.File com.weidian.sample.loader.VSwapHelper.getDataFolder(android.content.Context) // method@79
      0x0003: move-result-object v0
      0x0004: invoke-static {}, com.weidian.sample.loader.VFileLock com.weidian.sample.loader.VFileLock.getInstance() // method@75
      0x0007: move-result-object v3
      0x0008: const/4 v4, #+0
      0x0009: invoke-virtual {v3, v0, v4}, boolean com.weidian.sample.loader.VFileLock.lock(java.io.File, boolean) // method@76
      0x000c: move-result v3
      0x000d: if-nez v3, +31
      0x000f: const-string v3, "TAG" // string@67
      0x0011: new-instance v4, java.lang.StringBuilder // type@44
      0x0013: invoke-direct {v4}, void java.lang.StringBuilder.<init>() // method@95
      0x0016: const-string v5, "Failed to get file lock for " // string@8
      0x0018: invoke-virtual {v4, v5}, java.lang.StringBuilder java.lang.StringBuilder.append(java.lang.String) // method@97
      0x001b: move-result-object v4
      0x001c: invoke-virtual {v0}, java.lang.String java.io.File.getAbsolutePath() // method@85
      0x001f: move-result-object v5
      0x0020: invoke-virtual {v4, v5}, java.lang.StringBuilder java.lang.StringBuilder.append(java.lang.String) // method@97
      0x0023: move-result-object v4
      0x0024: invoke-virtual {v4}, java.lang.String java.lang.StringBuilder.toString() // method@98
      0x0027: move-result-object v4
      0x0028: invoke-static {v3, v4}, int android.util.Log.e(java.lang.String, java.lang.String) // method@14
      0x002b: return-void
      0x002c: new-instance v2, java.io.File // type@35
      0x002e: const-string v3, "tinker.txt" // string@198
      0x0030: invoke-direct {v2, v0, v3}, void java.io.File.<init>(java.io.File, java.lang.String) // method@82
      0x0033: invoke-virtual {v2}, java.io.File java.io.File.getParentFile() // method@86
      0x0036: move-result-object v3
      0x0037: invoke-virtual {v3}, boolean java.io.File.mkdirs() // method@87
      0x003a: invoke-virtual {v2}, boolean java.io.File.createNewFile() // method@83
      0x003d: new-instance v3, com.weidian.sample.MainActivity$2 // type@20
      0x003f: invoke-direct {v3, v6, v2}, void com.weidian.sample.MainActivity$2.<init>(com.weidian.sample.MainActivity, java.io.File) // method@20
      0x0042: invoke-virtual {v3}, void com.weidian.sample.MainActivity$2.run() // method@21
      0x0045: invoke-static {}, com.weidian.sample.loader.VFileLock com.weidian.sample.loader.VFileLock.getInstance() // method@75
      0x0048: move-result-object v3
      0x0049: invoke-virtual {v3, v0}, void com.weidian.sample.loader.VFileLock.unLock(java.io.File) // method@77
      0x004c: goto -33
      0x004d: move-exception v1
      0x004e: invoke-virtual {v1}, void java.io.IOException.printStackTrace() // method@88
      0x0051: invoke-static {}, com.weidian.sample.loader.VFileLock com.weidian.sample.loader.VFileLock.getInstance() // method@75
      0x0054: move-result-object v3
      0x0055: invoke-virtual {v3, v0}, void com.weidian.sample.loader.VFileLock.unLock(java.io.File) // method@77
      0x0058: goto -45
      0x0059: move-exception v3
      0x005a: invoke-static {}, com.weidian.sample.loader.VFileLock com.weidian.sample.loader.VFileLock.getInstance() // method@75
      0x005d: move-result-object v4
      0x005e: invoke-virtual {v4, v0}, void com.weidian.sample.loader.VFileLock.unLock(java.io.File) // method@77
      0x0061: throw v3
    OatMethodOffsets (offset=0x00002b2c)
      code_offset: 0x00005615 
      gc_map: (offset=0x00002e39)
    OatQuickMethodHeader (offset=0x000055f8)
      mapping_table: (offset=0x000031d4)
      vmap_table: (offset=0x00003368)
      v65534/r5, v3/r6, v0/r7, v4/r8, v2/r10, v5/r11, v65535/r15
    QuickMethodFrameInfo
      frame_size_in_bytes: 80
      core_spill_mask: 0x00008de0 (r5, r6, r7, r8, r10, r11, r15)
      fp_spill_mask: 0x00000000 
    CODE: (code_offset=0x00005615 size_offset=0x00005610 size=560)...
      0x00005614: f5bd5c00	subs    r12, sp, #8192
      0x00005618: f8dcc000	ldr.w   r12, [r12, #0]
      suspend point dex PC: 0x0000
      GC map objects:  v6 ([sp + #84]), v7 ([sp + #88])
      0x0000561c: e92d4de0	push    {r5, r6, r7, r8, r10, r11, lr}
      0x00005620: b08d    	sub     sp, sp, #52
      0x00005622: 1c05    	mov     r5, r0
      0x00005624: 9000    	str     r0, [sp, #0]
      0x00005626: 9115    	str     r1, [sp, #84]
      0x00005628: 9216    	str     r2, [sp, #88]
      0x0000562a: f8d9e224	ldr.w   lr, [r9, #548]  ; pInvokeStaticTrampolineWithAccessCheck
      0x0000562e: 9916    	ldr     r1, [sp, #88]
      0x00005630: 204f    	movs    r0, #79
      0x00005632: 47f0    	blx     lr
      suspend point dex PC: 0x0000
      GC map objects:  v6 ([sp + #84]), v7 ([sp + #88])
      0x00005634: f8d9e224	ldr.w   lr, [r9, #548]  ; pInvokeStaticTrampolineWithAccessCheck
      0x00005638: 1c07    	mov     r7, r0
      0x0000563a: 204b    	movs    r0, #75
      0x0000563c: 47f0    	blx     lr
      suspend point dex PC: 0x0004
      GC map objects:  v0 (r7), v6 ([sp + #84]), v7 ([sp + #88])
      0x0000563e: f8d9e22c	ldr.w   lr, [r9, #556]  ; pInvokeVirtualTrampolineWithAccessCheck
      0x00005642: 1c06    	mov     r6, r0
      0x00005644: f04f0800	mov.w   r8, #0
      0x00005648: 204c    	movs    r0, #76
      0x0000564a: 1c31    	mov     r1, r6
      0x0000564c: 1c3a    	mov     r2, r7
      0x0000564e: 4643    	mov     r3, r8
      0x00005650: 47f0    	blx     lr
      suspend point dex PC: 0x0009
      GC map objects:  v0 (r7), v3 (r6), v6 ([sp + #84]), v7 ([sp + #88])
      0x00005652: 1c06    	mov     r6, r0
      0x00005654: 2e00    	cmp     r6, #0
      0x00005656: d161    	bne     +194 (0x0000571c)
      0x00005658: 68a8    	ldr     r0, [r5, #8]
      0x0000565a: 6940    	ldr     r0, [r0, #20]
      0x0000565c: f8d00118	ldr.w   r0, [r0, #280]
      0x00005660: 2800    	cmp     r0, #0
      0x00005662: f00080d8	beq.w   +432 (0x00005816)
      0x00005666: f8d9e12c	ldr.w   lr, [r9, #300]  ; pAllocObjectInitialized
      0x0000566a: 1c06    	mov     r6, r0
      0x0000566c: 1c29    	mov     r1, r5
      0x0000566e: f24010e0	movw    r0, #480
      0x00005672: f2c70040	movt    r0, #28736
      0x00005676: 47f0    	blx     lr
      suspend point dex PC: 0x0011
      GC map objects:  v0 (r7), v3 (r6), v6 ([sp + #84]), v7 ([sp + #88])
      0x00005678: 4680    	mov     r8, r0
      0x0000567a: f64f6e9d	movw    lr, #65181
      0x0000567e: f2c72e0e	movt    lr, #29198
      0x00005682: f64f5038	movw    r0, #64824
      0x00005686: f6c670d4	movt    r0, #28628
      0x0000568a: 4641    	mov     r1, r8
      0x0000568c: 47f0    	blx     lr
      suspend point dex PC: 0x0013
      GC map objects:  v0 (r7), v3 (r6), v4 (r8), v6 ([sp + #84]), v7 ([sp + #88])
      0x0000568e: 68a8    	ldr     r0, [r5, #8]
      0x00005690: 6940    	ldr     r0, [r0, #20]
      0x00005692: 6ac0    	ldr     r0, [r0, #44]
      0x00005694: 2800    	cmp     r0, #0
      0x00005696: f00080c4	beq.w   +392 (0x00005822)
      0x0000569a: 4683    	mov     r11, r0
      0x0000569c: f6424e4d	movw    lr, #11341
      0x000056a0: f2c72e0f	movt    lr, #29199
      0x000056a4: f2401028	movw    r0, #296
      0x000056a8: f6c670d5	movt    r0, #28629
      0x000056ac: 4641    	mov     r1, r8
      0x000056ae: 465a    	mov     r2, r11
      0x000056b0: 47f0    	blx     lr
      suspend point dex PC: 0x0018
      GC map objects:  v0 (r7), v3 (r6), v4 (r8), v5 (r11), v6 ([sp + #84]), v7 ([sp + #88])
      0x000056b2: 4680    	mov     r8, r0
      0x000056b4: 1c39    	mov     r1, r7
      0x000056b6: 6808    	ldr     r0, [r1, #0]
      suspend point dex PC: 0x001c
      GC map objects:  v0 (r7), v3 (r6), v4 (r8), v5 (r11), v6 ([sp + #84]), v7 ([sp + #88])
      0x000056b8: f8d001c4	ldr.w   r0, [r0, #452]
      0x000056bc: f8d0e02c	ldr.w   lr, [r0, #44]
      0x000056c0: 47f0    	blx     lr
      suspend point dex PC: 0x001c
      GC map objects:  v0 (r7), v3 (r6), v4 (r8), v5 (r11), v6 ([sp + #84]), v7 ([sp + #88])
      0x000056c2: 4683    	mov     r11, r0
      0x000056c4: f6424e4d	movw    lr, #11341
      0x000056c8: f2c72e0f	movt    lr, #29199
      0x000056cc: f2401028	movw    r0, #296
      0x000056d0: f6c670d5	movt    r0, #28629
      0x000056d4: 4641    	mov     r1, r8
      0x000056d6: 465a    	mov     r2, r11
      0x000056d8: f8d1c000	ldr.w   r12, [r1, #0]
      suspend point dex PC: 0x0020
      GC map objects:  v0 (r7), v3 (r6), v4 (r8), v5 (r11), v6 ([sp + #84]), v7 ([sp + #88])
      0x000056dc: 47f0    	blx     lr
      suspend point dex PC: 0x0020
      GC map objects:  v0 (r7), v3 (r6), v4 (r8), v5 (r11), v6 ([sp + #84]), v7 ([sp + #88])
      0x000056de: 4680    	mov     r8, r0
      0x000056e0: f6433edd	movw    lr, #15325
      0x000056e4: f2c72e0f	movt    lr, #29199
      0x000056e8: f64f7078	movw    r0, #65400
      0x000056ec: f6c670d4	movt    r0, #28628
      0x000056f0: 4641    	mov     r1, r8
      0x000056f2: f8d1c000	ldr.w   r12, [r1, #0]
      suspend point dex PC: 0x0024
      GC map objects:  v0 (r7), v3 (r6), v4 (r8), v5 (r11), v6 ([sp + #84]), v7 ([sp + #88])
      0x000056f6: 47f0    	blx     lr
      suspend point dex PC: 0x0024
      GC map objects:  v0 (r7), v3 (r6), v4 (r8), v5 (r11), v6 ([sp + #84]), v7 ([sp + #88])
      0x000056f8: 4680    	mov     r8, r0
      0x000056fa: f24a6edd	movw    lr, #42717
      0x000056fe: f2c73e25	movt    lr, #29477
      0x00005702: f24570e8	movw    r0, #22504
      0x00005706: f6c670e8	movt    r0, #28648
      0x0000570a: 1c31    	mov     r1, r6
      0x0000570c: 4642    	mov     r2, r8
      0x0000570e: 47f0    	blx     lr
      suspend point dex PC: 0x0028
      GC map objects:  v0 (r7), v3 (r6), v4 (r8), v5 (r11), v6 ([sp + #84]), v7 ([sp + #88])
      0x00005710: 3c01    	subs    r4, #1
      0x00005712: f000808c	beq.w   +280 (0x0000582e)
      0x00005716: b00d    	add     sp, sp, #52
      0x00005718: e8bd8de0	pop     {r5, r6, r7, r8, r10, r11, pc}
      0x0000571c: f8d9e128	ldr.w   lr, [r9, #296]  ; pAllocObjectResolved
      0x00005720: 1c29    	mov     r1, r5
      0x00005722: f24070b8	movw    r0, #1976
      0x00005726: f2c70054	movt    r0, #28756
      0x0000572a: 47f0    	blx     lr
      suspend point dex PC: 0x002c
      GC map objects:  v0 (r7), v6 ([sp + #84]), v7 ([sp + #88])
      0x0000572c: 4682    	mov     r10, r0
      0x0000572e: 68a8    	ldr     r0, [r5, #8]
      0x00005730: 6940    	ldr     r0, [r0, #20]
      0x00005732: f8d00324	ldr.w   r0, [r0, #804]
      0x00005736: 2800    	cmp     r0, #0
      0x00005738: d07d    	beq     +250 (0x00005836)
      0x0000573a: 1c06    	mov     r6, r0
      0x0000573c: f2421eb5	movw    lr, #8629
      0x00005740: f2c72e0a	movt    lr, #29194
      0x00005744: f6425040	movw    r0, #11584
      0x00005748: f2c70059	movt    r0, #28761
      0x0000574c: 4651    	mov     r1, r10
      0x0000574e: 1c3a    	mov     r2, r7
      0x00005750: 1c33    	mov     r3, r6
      0x00005752: 47f0    	blx     lr
      suspend point dex PC: 0x0030
      GC map objects:  v0 (r7), v2 (r10), v3 (r6), v6 ([sp + #84]), v7 ([sp + #88])
      0x00005754: 4651    	mov     r1, r10
      0x00005756: 6808    	ldr     r0, [r1, #0]
      0x00005758: f8d001dc	ldr.w   r0, [r0, #476]
      0x0000575c: f8d0e02c	ldr.w   lr, [r0, #44]
      0x00005760: 47f0    	blx     lr
      suspend point dex PC: 0x0033
      GC map objects:  v0 (r7), v2 (r10), v3 (r6), v6 ([sp + #84]), v7 ([sp + #88])
      0x00005762: 1c06    	mov     r6, r0
      0x00005764: 1c31    	mov     r1, r6
      0x00005766: 6808    	ldr     r0, [r1, #0]
      suspend point dex PC: 0x0037
      GC map objects:  v0 (r7), v2 (r10), v3 (r6), v6 ([sp + #84]), v7 ([sp + #88])
      0x00005768: f8d0021c	ldr.w   r0, [r0, #540]
      0x0000576c: f8d0e02c	ldr.w   lr, [r0, #44]
      0x00005770: 47f0    	blx     lr
      suspend point dex PC: 0x0037
      GC map objects:  v0 (r7), v2 (r10), v3 (r6), v6 ([sp + #84]), v7 ([sp + #88])
      0x00005772: 4651    	mov     r1, r10
      0x00005774: 6808    	ldr     r0, [r1, #0]
      suspend point dex PC: 0x003a
      GC map objects:  v0 (r7), v2 (r10), v3 (r6), v6 ([sp + #84]), v7 ([sp + #88])
      0x00005776: f8d001b0	ldr.w   r0, [r0, #432]
      0x0000577a: f8d0e02c	ldr.w   lr, [r0, #44]
      0x0000577e: 47f0    	blx     lr
      suspend point dex PC: 0x003a
      GC map objects:  v0 (r7), v2 (r10), v3 (r6), v6 ([sp + #84]), v7 ([sp + #88])
      0x00005780: f8d9e130	ldr.w   lr, [r9, #304]  ; pAllocObjectWithAccessCheck
      0x00005784: 1c29    	mov     r1, r5
      0x00005786: 2014    	movs    r0, #20
      0x00005788: 47f0    	blx     lr
      suspend point dex PC: 0x003d
      GC map objects:  v0 (r7), v2 (r10), v3 (r6), v6 ([sp + #84]), v7 ([sp + #88])
      0x0000578a: 1c06    	mov     r6, r0
      0x0000578c: f8d9e21c	ldr.w   lr, [r9, #540]  ; pInvokeDirectTrampolineWithAccessCheck
      0x00005790: 9a15    	ldr     r2, [sp, #84]
      0x00005792: 2014    	movs    r0, #20
      0x00005794: 1c31    	mov     r1, r6
      0x00005796: 4653    	mov     r3, r10
      0x00005798: 47f0    	blx     lr
      suspend point dex PC: 0x003f
      GC map objects:  v0 (r7), v2 (r10), v3 (r6), v6 ([sp + #84]), v7 ([sp + #88])
      0x0000579a: f8d9e22c	ldr.w   lr, [r9, #556]  ; pInvokeVirtualTrampolineWithAccessCheck
      0x0000579e: 2015    	movs    r0, #21
      0x000057a0: 1c31    	mov     r1, r6
      0x000057a2: 47f0    	blx     lr
      suspend point dex PC: 0x0042
      GC map objects:  v0 (r7), v2 (r10), v3 (r6), v6 ([sp + #84]), v7 ([sp + #88])
      0x000057a4: f8d9e224	ldr.w   lr, [r9, #548]  ; pInvokeStaticTrampolineWithAccessCheck
      0x000057a8: 204b    	movs    r0, #75
      0x000057aa: 47f0    	blx     lr
      suspend point dex PC: 0x0045
      GC map objects:  v0 (r7), v2 (r10), v3 (r6), v6 ([sp + #84]), v7 ([sp + #88])
      0x000057ac: f8d9e22c	ldr.w   lr, [r9, #556]  ; pInvokeVirtualTrampolineWithAccessCheck
      0x000057b0: 1c06    	mov     r6, r0
      0x000057b2: 204d    	movs    r0, #77
      0x000057b4: 1c31    	mov     r1, r6
      0x000057b6: 1c3a    	mov     r2, r7
      0x000057b8: 47f0    	blx     lr
      suspend point dex PC: 0x0049
      GC map objects:  v0 (r7), v2 (r10), v3 (r6), v6 ([sp + #84]), v7 ([sp + #88])
      0x000057ba: e7a9    	b       -174 (0x00005710)
      catch entry dex PC: 0x004d
      0x000057bc: f8d9007c	ldr.w   r0, [r9, #124]  ; exception
      0x000057c0: 2100    	movs    r1, #0
      0x000057c2: f8c9107c	str.w   r1, [r9, #124]
      0x000057c6: 9007    	str     r0, [sp, #28]
      0x000057c8: 9907    	ldr     r1, [sp, #28]
      0x000057ca: 6808    	ldr     r0, [r1, #0]
      suspend point dex PC: 0x004e
      GC map objects:  v0 (r7), v1 ([sp + #28]), v2 (r10), v3 (r6), v6 ([sp + #84]), v7 ([sp + #88])
      0x000057cc: f8d001bc	ldr.w   r0, [r0, #444]
      0x000057d0: f8d0e02c	ldr.w   lr, [r0, #44]
      0x000057d4: 47f0    	blx     lr
      suspend point dex PC: 0x004e
      GC map objects:  v0 (r7), v1 ([sp + #28]), v2 (r10), v3 (r6), v6 ([sp + #84]), v7 ([sp + #88])
      0x000057d6: f8d9e224	ldr.w   lr, [r9, #548]  ; pInvokeStaticTrampolineWithAccessCheck
      0x000057da: 204b    	movs    r0, #75
      0x000057dc: 47f0    	blx     lr
      suspend point dex PC: 0x0051
      GC map objects:  v0 (r7), v1 ([sp + #28]), v2 (r10), v3 (r6), v6 ([sp + #84]), v7 ([sp + #88])
      0x000057de: f8d9e22c	ldr.w   lr, [r9, #556]  ; pInvokeVirtualTrampolineWithAccessCheck
      0x000057e2: 1c06    	mov     r6, r0
      0x000057e4: 204d    	movs    r0, #77
      0x000057e6: 1c31    	mov     r1, r6
      0x000057e8: 1c3a    	mov     r2, r7
      0x000057ea: 47f0    	blx     lr
      suspend point dex PC: 0x0055
      GC map objects:  v0 (r7), v1 ([sp + #28]), v2 (r10), v3 (r6), v6 ([sp + #84]), v7 ([sp + #88])
      0x000057ec: e790    	b       -224 (0x00005710)
      catch entry dex PC: 0x0059
      0x000057ee: f8d9607c	ldr.w   r6, [r9, #124]  ; exception
      0x000057f2: 2200    	movs    r2, #0
      0x000057f4: f8c9207c	str.w   r2, [r9, #124]
      0x000057f8: f8d9e224	ldr.w   lr, [r9, #548]  ; pInvokeStaticTrampolineWithAccessCheck
      0x000057fc: 204b    	movs    r0, #75
      0x000057fe: 47f0    	blx     lr
      suspend point dex PC: 0x005a
      GC map objects:  v0 (r7), v2 (r10), v3 (r6), v6 ([sp + #84]), v7 ([sp + #88])
      0x00005800: f8d9e22c	ldr.w   lr, [r9, #556]  ; pInvokeVirtualTrampolineWithAccessCheck
      0x00005804: 4680    	mov     r8, r0
      0x00005806: 204d    	movs    r0, #77
      0x00005808: 4641    	mov     r1, r8
      0x0000580a: 1c3a    	mov     r2, r7
      0x0000580c: 47f0    	blx     lr
      suspend point dex PC: 0x005e
      GC map objects:  v0 (r7), v2 (r10), v3 (r6), v4 (r8), v6 ([sp + #84]), v7 ([sp + #88])
      0x0000580e: f8d9e234	ldr.w   lr, [r9, #564]  ; pDeliverException
      0x00005812: 1c30    	mov     r0, r6
      0x00005814: 47f0    	blx     lr
      suspend point dex PC: 0x0061
      GC map objects:  v0 (r7), v2 (r10), v3 (r6), v4 (r8), v6 ([sp + #84]), v7 ([sp + #88])
      0x00005816: f8d9e150	ldr.w   lr, [r9, #336]  ; pResolveString
      0x0000581a: 1c28    	mov     r0, r5
      0x0000581c: 2143    	movs    r1, #67
      0x0000581e: 47f0    	blx     lr
      suspend point dex PC: 0x000f
      GC map objects:  v0 (r7), v6 ([sp + #84]), v7 ([sp + #88])
      0x00005820: e721    	b       -446 (0x00005666)
      0x00005822: f8d9e150	ldr.w   lr, [r9, #336]  ; pResolveString
      0x00005826: 1c28    	mov     r0, r5
      0x00005828: 2108    	movs    r1, #8
      0x0000582a: 47f0    	blx     lr
      suspend point dex PC: 0x0016
      GC map objects:  v0 (r7), v3 (r6), v4 (r8), v6 ([sp + #84]), v7 ([sp + #88])
      0x0000582c: e735    	b       -406 (0x0000569a)
      0x0000582e: f8d9e230	ldr.w   lr, [r9, #560]  ; pTestSuspend
      0x00005832: 47f0    	blx     lr
      suspend point dex PC: 0x002b
      0x00005834: e76f    	b       -290 (0x00005716)
      0x00005836: f8d9e150	ldr.w   lr, [r9, #336]  ; pResolveString
      0x0000583a: 1c28    	mov     r0, r5
      0x0000583c: 21c6    	movs    r1, #198
      0x0000583e: 47f0    	blx     lr
      suspend point dex PC: 0x002e
      GC map objects:  v0 (r7), v2 (r10), v6 ([sp + #84]), v7 ([sp + #88])
      0x00005840: e77b    	b       -266 (0x0000573a)
      0x00005842: 0000    	lsls    r0, r0, #0
  20: void com.weidian.sample.MainActivity.bindIntentService(android.view.View) (dex_method_idx=26)
    DEX CODE:
      0x0000: new-instance v0, android.content.Intent // type@5
      0x0002: invoke-direct {v0}, void android.content.Intent.<init>() // method@4
      0x0005: new-instance v1, android.content.ComponentName // type@3
      0x0007: const-string v2, "com.weidian.sample" // string@92
      0x0009: const-string v3, "com.weidian.sample.PluginIntentService" // string@94
      0x000b: invoke-direct {v1, v2, v3}, void android.content.ComponentName.<init>(java.lang.String, java.lang.String) // method@3
      0x000e: invoke-virtual {v0, v1}, android.content.Intent android.content.Intent.setComponent(android.content.ComponentName) // method@8
      0x0011: move-result-object v0
      0x0012: invoke-virtual {v4, v0}, android.content.ComponentName com.weidian.sample.MainActivity.startService(android.content.Intent) // method@51
      0x0015: return-void
    OatMethodOffsets (offset=0x00002b30)
      code_offset: 0x00005865 
      gc_map: (offset=0x00002eac)
    OatQuickMethodHeader (offset=0x00005848)
      mapping_table: (offset=0x00003227)
      vmap_table: (offset=0x00003370)
      v65534/r5, v0/r6, v1/r7, v2/r8, v3/r10, v4/r11, v65535/r15
    QuickMethodFrameInfo
      frame_size_in_bytes: 64
      core_spill_mask: 0x00008de0 (r5, r6, r7, r8, r10, r11, r15)
      fp_spill_mask: 0x00000000 
    CODE: (code_offset=0x00005865 size_offset=0x00005860 size=212)...
      0x00005864: f5bd5c00	subs    r12, sp, #8192
      0x00005868: f8dcc000	ldr.w   r12, [r12, #0]
      suspend point dex PC: 0x0000
      GC map objects:  v4 (r11), v5 ([sp + #72])
      0x0000586c: e92d4de0	push    {r5, r6, r7, r8, r10, r11, lr}
      0x00005870: b089    	sub     sp, sp, #36
      0x00005872: 1c05    	mov     r5, r0
      0x00005874: 9000    	str     r0, [sp, #0]
      0x00005876: 468b    	mov     r11, r1
      0x00005878: 9212    	str     r2, [sp, #72]
      0x0000587a: f8d9e12c	ldr.w   lr, [r9, #300]  ; pAllocObjectInitialized
      0x0000587e: 1c29    	mov     r1, r5
      0x00005880: f64670e8	movw    r0, #28648
      0x00005884: f2c70048	movt    r0, #28744
      0x00005888: 47f0    	blx     lr
      suspend point dex PC: 0x0000
      GC map objects:  v4 (r11), v5 ([sp + #72])
      0x0000588a: 1c06    	mov     r6, r0
      0x0000588c: f2442e95	movw    lr, #17045
      0x00005890: f2c73e06	movt    lr, #29446
      0x00005894: f24c0038	movw    r0, #49208
      0x00005898: f6c670e1	movt    r0, #28641
      0x0000589c: 1c31    	mov     r1, r6
      0x0000589e: 47f0    	blx     lr
      suspend point dex PC: 0x0002
      GC map objects:  v0 (r6), v4 (r11), v5 ([sp + #72])
      0x000058a0: f8d9e12c	ldr.w   lr, [r9, #300]  ; pAllocObjectInitialized
      0x000058a4: 1c29    	mov     r1, r5
      0x000058a6: f24660f8	movw    r0, #26360
      0x000058aa: f2c70048	movt    r0, #28744
      0x000058ae: 47f0    	blx     lr
      suspend point dex PC: 0x0005
      GC map objects:  v0 (r6), v4 (r11), v5 ([sp + #72])
      0x000058b0: 1c07    	mov     r7, r0
      0x000058b2: 68a8    	ldr     r0, [r5, #8]
      0x000058b4: 6940    	ldr     r0, [r0, #20]
      0x000058b6: f8d0017c	ldr.w   r0, [r0, #380]
      0x000058ba: b360    	cbz     r0, +88 (0x00005916)
      0x000058bc: 4680    	mov     r8, r0
      0x000058be: 68a8    	ldr     r0, [r5, #8]
      0x000058c0: 6940    	ldr     r0, [r0, #20]
      0x000058c2: f8d00184	ldr.w   r0, [r0, #388]
      0x000058c6: b360    	cbz     r0, +88 (0x00005922)
      0x000058c8: 4682    	mov     r10, r0
      0x000058ca: f6423e25	movw    lr, #11045
      0x000058ce: f2c73e04	movt    lr, #29444
      0x000058d2: f24a2038	movw    r0, #41528
      0x000058d6: f6c670e1	movt    r0, #28641
      0x000058da: 1c39    	mov     r1, r7
      0x000058dc: 4642    	mov     r2, r8
      0x000058de: 4653    	mov     r3, r10
      0x000058e0: 47f0    	blx     lr
      suspend point dex PC: 0x000b
      GC map objects:  v0 (r6), v1 (r7), v2 (r8), v3 (r10), v4 (r11), v5 ([sp + #72])
      0x000058e2: f24b0e55	movw    lr, #45141
      0x000058e6: f2c72e3a	movt    lr, #29242
      0x000058ea: f64d10b8	movw    r0, #55736
      0x000058ee: f6c670e1	movt    r0, #28641
      0x000058f2: 1c31    	mov     r1, r6
      0x000058f4: 1c3a    	mov     r2, r7
      0x000058f6: 47f0    	blx     lr
      suspend point dex PC: 0x000e
      GC map objects:  v0 (r6), v1 (r7), v2 (r8), v3 (r10), v4 (r11), v5 ([sp + #72])
      0x000058f8: 1c06    	mov     r6, r0
      0x000058fa: 4659    	mov     r1, r11
      0x000058fc: 6808    	ldr     r0, [r1, #0]
      0x000058fe: 1c32    	mov     r2, r6
      0x00005900: f8d00364	ldr.w   r0, [r0, #868]
      0x00005904: f8d0e02c	ldr.w   lr, [r0, #44]
      0x00005908: 47f0    	blx     lr
      suspend point dex PC: 0x0012
      GC map objects:  v0 (r6), v1 (r7), v2 (r8), v3 (r10), v4 (r11), v5 ([sp + #72])
      0x0000590a: 3c01    	subs    r4, #1
      0x0000590c: f000800f	beq.w   +30 (0x0000592e)
      0x00005910: b009    	add     sp, sp, #36
      0x00005912: e8bd8de0	pop     {r5, r6, r7, r8, r10, r11, pc}
      0x00005916: f8d9e150	ldr.w   lr, [r9, #336]  ; pResolveString
      0x0000591a: 1c28    	mov     r0, r5
      0x0000591c: 215c    	movs    r1, #92
      0x0000591e: 47f0    	blx     lr
      suspend point dex PC: 0x0007
      GC map objects:  v0 (r6), v1 (r7), v4 (r11), v5 ([sp + #72])
      0x00005920: e7cc    	b       -104 (0x000058bc)
      0x00005922: f8d9e150	ldr.w   lr, [r9, #336]  ; pResolveString
      0x00005926: 1c28    	mov     r0, r5
      0x00005928: 215e    	movs    r1, #94
      0x0000592a: 47f0    	blx     lr
      suspend point dex PC: 0x0009
      GC map objects:  v0 (r6), v1 (r7), v2 (r8), v4 (r11), v5 ([sp + #72])
      0x0000592c: e7cc    	b       -104 (0x000058c8)
      0x0000592e: f8d9e230	ldr.w   lr, [r9, #560]  ; pTestSuspend
      0x00005932: 47f0    	blx     lr
      suspend point dex PC: 0x0015
      0x00005934: e7ec    	b       -40 (0x00005910)
      0x00005936: 0000    	lsls    r0, r0, #0
  21: void com.weidian.sample.MainActivity.bindService1(android.view.View) (dex_method_idx=28)
    DEX CODE:
      0x0000: new-instance v0, android.content.Intent // type@5
      0x0002: invoke-direct {v0}, void android.content.Intent.<init>() // method@4
      0x0005: new-instance v1, android.content.ComponentName // type@3
      0x0007: const-string v2, "com.weidian.sample" // string@92
      0x0009: const-string v3, "com.weidian.sample.PluginService1" // string@95
      0x000b: invoke-direct {v1, v2, v3}, void android.content.ComponentName.<init>(java.lang.String, java.lang.String) // method@3
      0x000e: invoke-virtual {v0, v1}, android.content.Intent android.content.Intent.setComponent(android.content.ComponentName) // method@8
      0x0011: move-result-object v0
      0x0012: iget-object v1, v4, Landroid/content/ServiceConnection; com.weidian.sample.MainActivity.conn // field@2
      0x0014: const/4 v2, #+1
      0x0015: invoke-virtual {v4, v0, v1, v2}, boolean com.weidian.sample.MainActivity.bindService(android.content.Intent, android.content.ServiceConnection, int) // method@27
      0x0018: return-void
    OatMethodOffsets (offset=0x00002b34)
      code_offset: 0x00005955 
      gc_map: (offset=0x00002ec4)
    OatQuickMethodHeader (offset=0x00005938)
      mapping_table: (offset=0x0000323d)
      vmap_table: (offset=0x00003378)
      v65534/r5, v0/r6, v1/r7, v4/r8, v2/r10, v3/r11, v65535/r15
    QuickMethodFrameInfo
      frame_size_in_bytes: 80
      core_spill_mask: 0x00008de0 (r5, r6, r7, r8, r10, r11, r15)
      fp_spill_mask: 0x00000000 
    CODE: (code_offset=0x00005955 size_offset=0x00005950 size=224)...
      0x00005954: f5bd5c00	subs    r12, sp, #8192
      0x00005958: f8dcc000	ldr.w   r12, [r12, #0]
      suspend point dex PC: 0x0000
      GC map objects:  v4 (r8), v5 ([sp + #88])
      0x0000595c: e92d4de0	push    {r5, r6, r7, r8, r10, r11, lr}
      0x00005960: b08d    	sub     sp, sp, #52
      0x00005962: 1c05    	mov     r5, r0
      0x00005964: 9000    	str     r0, [sp, #0]
      0x00005966: 4688    	mov     r8, r1
      0x00005968: 9216    	str     r2, [sp, #88]
      0x0000596a: f8d9e12c	ldr.w   lr, [r9, #300]  ; pAllocObjectInitialized
      0x0000596e: 1c29    	mov     r1, r5
      0x00005970: f64670e8	movw    r0, #28648
      0x00005974: f2c70048	movt    r0, #28744
      0x00005978: 47f0    	blx     lr
      suspend point dex PC: 0x0000
      GC map objects:  v4 (r8), v5 ([sp + #88])
      0x0000597a: 1c06    	mov     r6, r0
      0x0000597c: f2442e95	movw    lr, #17045
      0x00005980: f2c73e06	movt    lr, #29446
      0x00005984: f24c0038	movw    r0, #49208
      0x00005988: f6c670e1	movt    r0, #28641
      0x0000598c: 1c31    	mov     r1, r6
      0x0000598e: 47f0    	blx     lr
      suspend point dex PC: 0x0002
      GC map objects:  v0 (r6), v4 (r8), v5 ([sp + #88])
      0x00005990: f8d9e12c	ldr.w   lr, [r9, #300]  ; pAllocObjectInitialized
      0x00005994: 1c29    	mov     r1, r5
      0x00005996: f24660f8	movw    r0, #26360
      0x0000599a: f2c70048	movt    r0, #28744
      0x0000599e: 47f0    	blx     lr
      suspend point dex PC: 0x0005
      GC map objects:  v0 (r6), v4 (r8), v5 ([sp + #88])
      0x000059a0: 1c07    	mov     r7, r0
      0x000059a2: 68a8    	ldr     r0, [r5, #8]
      0x000059a4: 6940    	ldr     r0, [r0, #20]
      0x000059a6: f8d0017c	ldr.w   r0, [r0, #380]
      0x000059aa: b398    	cbz     r0, +102 (0x00005a14)
      0x000059ac: 4682    	mov     r10, r0
      0x000059ae: 68a8    	ldr     r0, [r5, #8]
      0x000059b0: 6940    	ldr     r0, [r0, #20]
      0x000059b2: f8d00188	ldr.w   r0, [r0, #392]
      0x000059b6: b398    	cbz     r0, +102 (0x00005a20)
      0x000059b8: 4683    	mov     r11, r0
      0x000059ba: f6423e25	movw    lr, #11045
      0x000059be: f2c73e04	movt    lr, #29444
      0x000059c2: f24a2038	movw    r0, #41528
      0x000059c6: f6c670e1	movt    r0, #28641
      0x000059ca: 1c39    	mov     r1, r7
      0x000059cc: 4652    	mov     r2, r10
      0x000059ce: 465b    	mov     r3, r11
      0x000059d0: 47f0    	blx     lr
      suspend point dex PC: 0x000b
      GC map objects:  v0 (r6), v1 (r7), v2 (r10), v3 (r11), v4 (r8), v5 ([sp + #88])
      0x000059d2: f24b0e55	movw    lr, #45141
      0x000059d6: f2c72e3a	movt    lr, #29242
      0x000059da: f64d10b8	movw    r0, #55736
      0x000059de: f6c670e1	movt    r0, #28641
      0x000059e2: 1c31    	mov     r1, r6
      0x000059e4: 1c3a    	mov     r2, r7
      0x000059e6: 47f0    	blx     lr
      suspend point dex PC: 0x000e
      GC map objects:  v0 (r6), v1 (r7), v2 (r10), v3 (r11), v4 (r8), v5 ([sp + #88])
      0x000059e8: f8d87108	ldr.w   r7, [r8, #264]
      0x000059ec: 1c06    	mov     r6, r0
      0x000059ee: f04f0a01	mov.w   r10, #1
      0x000059f2: 4641    	mov     r1, r8
      0x000059f4: 6808    	ldr     r0, [r1, #0]
      0x000059f6: f8cda010	str.w   r10, [sp, #16]
      0x000059fa: 1c32    	mov     r2, r6
      0x000059fc: f8d0019c	ldr.w   r0, [r0, #412]
      0x00005a00: 1c3b    	mov     r3, r7
      0x00005a02: f8d0e02c	ldr.w   lr, [r0, #44]
      0x00005a06: 47f0    	blx     lr
      suspend point dex PC: 0x0015
      GC map objects:  v0 (r6), v1 (r7), v3 (r11), v4 (r8), v5 ([sp + #88])
      0x00005a08: 3c01    	subs    r4, #1
      0x00005a0a: f000800f	beq.w   +30 (0x00005a2c)
      0x00005a0e: b00d    	add     sp, sp, #52
      0x00005a10: e8bd8de0	pop     {r5, r6, r7, r8, r10, r11, pc}
      0x00005a14: f8d9e150	ldr.w   lr, [r9, #336]  ; pResolveString
      0x00005a18: 1c28    	mov     r0, r5
      0x00005a1a: 215c    	movs    r1, #92
      0x00005a1c: 47f0    	blx     lr
      suspend point dex PC: 0x0007
      GC map objects:  v0 (r6), v1 (r7), v4 (r8), v5 ([sp + #88])
      0x00005a1e: e7c5    	b       -118 (0x000059ac)
      0x00005a20: f8d9e150	ldr.w   lr, [r9, #336]  ; pResolveString
      0x00005a24: 1c28    	mov     r0, r5
      0x00005a26: 215f    	movs    r1, #95
      0x00005a28: 47f0    	blx     lr
      suspend point dex PC: 0x0009
      GC map objects:  v0 (r6), v1 (r7), v2 (r10), v4 (r8), v5 ([sp + #88])
      0x00005a2a: e7c5    	b       -118 (0x000059b8)
      0x00005a2c: f8d9e230	ldr.w   lr, [r9, #560]  ; pTestSuspend
      0x00005a30: 47f0    	blx     lr
      suspend point dex PC: 0x0018
      0x00005a32: e7ec    	b       -40 (0x00005a0e)
  22: void com.weidian.sample.MainActivity.dynamicRegister(android.view.View) (dex_method_idx=29)
    DEX CODE:
      0x0000: new-instance v0, android.content.Intent // type@5
      0x0002: const-string v1, "dynamic" // string@104
      0x0004: invoke-direct {v0, v1}, void android.content.Intent.<init>(java.lang.String) // method@6
      0x0007: invoke-virtual {v2, v0}, void com.weidian.sample.MainActivity.sendBroadcast(android.content.Intent) // method@48
      0x000a: return-void
    OatMethodOffsets (offset=0x00002b38)
      code_offset: 0x00005a55 
      gc_map: (offset=0x00002edc)
    OatQuickMethodHeader (offset=0x00005a38)
      mapping_table: (offset=0x00003253)
      vmap_table: (offset=0x00003380)
      v65534/r5, v0/r6, v1/r7, v2/r8, v65535/r15
    QuickMethodFrameInfo
      frame_size_in_bytes: 48
      core_spill_mask: 0x000081e0 (r5, r6, r7, r8, r15)
      fp_spill_mask: 0x00000000 
    CODE: (code_offset=0x00005a55 size_offset=0x00005a50 size=124)...
      0x00005a54: f5bd5c00	subs    r12, sp, #8192
      0x00005a58: f8dcc000	ldr.w   r12, [r12, #0]
      suspend point dex PC: 0x0000
      GC map objects:  v2 (r8), v3 ([sp + #56])
      0x00005a5c: e92d41e0	push    {r5, r6, r7, r8, lr}
      0x00005a60: b087    	sub     sp, sp, #28
      0x00005a62: 1c05    	mov     r5, r0
      0x00005a64: 9000    	str     r0, [sp, #0]
      0x00005a66: 4688    	mov     r8, r1
      0x00005a68: 920e    	str     r2, [sp, #56]
      0x00005a6a: f8d9e12c	ldr.w   lr, [r9, #300]  ; pAllocObjectInitialized
      0x00005a6e: 1c29    	mov     r1, r5
      0x00005a70: f64670e8	movw    r0, #28648
      0x00005a74: f2c70048	movt    r0, #28744
      0x00005a78: 47f0    	blx     lr
      suspend point dex PC: 0x0000
      GC map objects:  v2 (r8), v3 ([sp + #56])
      0x00005a7a: 1c06    	mov     r6, r0
      0x00005a7c: 68a8    	ldr     r0, [r5, #8]
      0x00005a7e: 6940    	ldr     r0, [r0, #20]
      0x00005a80: f8d001ac	ldr.w   r0, [r0, #428]
      0x00005a84: b1c8    	cbz     r0, +50 (0x00005aba)
      0x00005a86: 1c07    	mov     r7, r0
      0x00005a88: f2446e6d	movw    lr, #18029
      0x00005a8c: f2c73e06	movt    lr, #29446
      0x00005a90: f24c1028	movw    r0, #49448
      0x00005a94: f6c670e1	movt    r0, #28641
      0x00005a98: 1c31    	mov     r1, r6
      0x00005a9a: 1c3a    	mov     r2, r7
      0x00005a9c: 47f0    	blx     lr
      suspend point dex PC: 0x0004
      GC map objects:  v0 (r6), v1 (r7), v2 (r8), v3 ([sp + #56])
      0x00005a9e: 4641    	mov     r1, r8
      0x00005aa0: 6808    	ldr     r0, [r1, #0]
      0x00005aa2: 1c32    	mov     r2, r6
      0x00005aa4: f8d002f8	ldr.w   r0, [r0, #760]
      0x00005aa8: f8d0e02c	ldr.w   lr, [r0, #44]
      0x00005aac: 47f0    	blx     lr
      suspend point dex PC: 0x0007
      GC map objects:  v0 (r6), v1 (r7), v2 (r8), v3 ([sp + #56])
      0x00005aae: 3c01    	subs    r4, #1
      0x00005ab0: f0008009	beq.w   +18 (0x00005ac6)
      0x00005ab4: b007    	add     sp, sp, #28
      0x00005ab6: e8bd81e0	pop     {r5, r6, r7, r8, pc}
      0x00005aba: f8d9e150	ldr.w   lr, [r9, #336]  ; pResolveString
      0x00005abe: 1c28    	mov     r0, r5
      0x00005ac0: 2168    	movs    r1, #104
      0x00005ac2: 47f0    	blx     lr
      suspend point dex PC: 0x0002
      GC map objects:  v0 (r6), v2 (r8), v3 ([sp + #56])
      0x00005ac4: e7df    	b       -66 (0x00005a86)
      0x00005ac6: f8d9e230	ldr.w   lr, [r9, #560]  ; pTestSuspend
      0x00005aca: 47f0    	blx     lr
      suspend point dex PC: 0x000a
      0x00005acc: e7f2    	b       -28 (0x00005ab4)
      0x00005ace: 0000    	lsls    r0, r0, #0
  23: void com.weidian.sample.MainActivity.onClick(android.view.View) (dex_method_idx=42)
    DEX CODE:
      0x0000: invoke-virtual {v4}, int android.view.View.getId() // method@15
      0x0003: move-result v2
      0x0004: packed-switch v2, +76
      0x0007: return-void
      0x0008: invoke-direct {v3}, void com.weidian.sample.MainActivity.testRaw() // method@64
      0x000b: goto -4
      0x000c: invoke-direct {v3}, void com.weidian.sample.MainActivity.testAssets() // method@60
      0x000f: goto -8
      0x0010: invoke-direct {v3}, void com.weidian.sample.MainActivity.testJni() // method@62
      0x0013: goto -12
      0x0014: invoke-direct {v3}, void com.weidian.sample.MainActivity.testString() // method@65
      0x0017: goto -16
      0x0018: invoke-direct {v3}, void com.weidian.sample.MainActivity.testStringArray() // method@66
      0x001b: goto -20
      0x001c: invoke-direct {v3}, void com.weidian.sample.MainActivity.testImageView() // method@61
      0x001f: goto -24
      0x0020: invoke-direct {v3}, void com.weidian.sample.MainActivity.testAdd() // method@59
      0x0023: goto -28
      0x0024: invoke-direct {v3}, void com.weidian.sample.MainActivity.loadPatch() // method@36
      0x0027: goto -32
      0x0028: const/4 v2, #+1
      0x0029: invoke-direct {v3, v3, v2}, void com.weidian.sample.MainActivity.testLock(android.content.Context, boolean) // method@63
      0x002c: goto -37
      0x002d: const/4 v2, #+0
      0x002e: invoke-direct {v3, v3, v2}, void com.weidian.sample.MainActivity.testLock(android.content.Context, boolean) // method@63
      0x0031: goto -42
      0x0032: invoke-direct {v3, v3}, void com.weidian.sample.MainActivity.testWrite(android.content.Context) // method@67
      0x0035: goto -46
      0x0036: invoke-direct {v3}, void com.weidian.sample.MainActivity.onProcess() // method@45
      0x0039: goto -50
      0x003a: new-instance v0, android.content.Intent // type@5
      0x003c: const-class v2, com.weidian.sample.SecoindActivity // type@23
      0x003e: invoke-direct {v0, v3, v2}, void android.content.Intent.<init>(android.content.Context, java.lang.Class) // method@5
      0x0041: invoke-virtual {v3, v0}, void com.weidian.sample.MainActivity.startActivity(android.content.Intent) // method@50
      0x0044: goto -61
      0x0045: new-instance v1, android.content.Intent // type@5
      0x0047: const-class v2, com.weidian.sample.ThirdActivity // type@25
      0x0049: invoke-direct {v1, v3, v2}, void android.content.Intent.<init>(android.content.Context, java.lang.Class) // method@5
      0x004c: invoke-virtual {v3, v1}, void com.weidian.sample.MainActivity.startActivity(android.content.Intent) // method@50
      0x004f: goto -72
      0x0050: nop
    OatMethodOffsets (offset=0x00002b3c)
      code_offset: 0x00005aed 
      gc_map: (offset=0x00002eec)
    OatQuickMethodHeader (offset=0x00005ad0)
      mapping_table: (offset=0x00003261)
      vmap_table: (offset=0x00003386)
      v3/r5, v65534/r6, v2/r7, v0/r8, v1/r10, v4/r11, v65535/r15
    QuickMethodFrameInfo
      frame_size_in_bytes: 64
      core_spill_mask: 0x00008de0 (r5, r6, r7, r8, r10, r11, r15)
      fp_spill_mask: 0x00000000 
    CODE: (code_offset=0x00005aed size_offset=0x00005ae8 size=524)...
      0x00005aec: f5bd5c00	subs    r12, sp, #8192
      0x00005af0: f8dcc000	ldr.w   r12, [r12, #0]
      suspend point dex PC: 0x0000
      GC map objects:  v3 (r5), v4 (r11)
      0x00005af4: e92d4de0	push    {r5, r6, r7, r8, r10, r11, lr}
      0x00005af8: b089    	sub     sp, sp, #36
      0x00005afa: 1c06    	mov     r6, r0
      0x00005afc: 9000    	str     r0, [sp, #0]
      0x00005afe: 1c0d    	mov     r5, r1
      0x00005b00: 4693    	mov     r11, r2
      0x00005b02: 4659    	mov     r1, r11
      0x00005b04: 6808    	ldr     r0, [r1, #0]
      suspend point dex PC: 0x0000
      GC map objects:  v3 (r5), v4 (r11)
      0x00005b06: f8d00454	ldr.w   r0, [r0, #1108]
      0x00005b0a: f8d0e02c	ldr.w   lr, [r0, #44]
      0x00005b0e: 47f0    	blx     lr
      suspend point dex PC: 0x0000
      GC map objects:  v3 (r5), v4 (r11)
      0x00005b10: 1c07    	mov     r7, r0
      0x00005b12: f20f12a4	adr     r2, +420 (0x00005cba)
      0x00005b16: f2400c50	movw    r12, #80
      0x00005b1a: f6c77c0e	movt    r12, #32526
      0x00005b1e: ebb7030c	subs.w  r3, r7, r12
      0x00005b22: 2b0f    	cmp     r3, #15
      0x00005b24: f2008003	bhi.w   +6 (0x00005b2e)
      0x00005b28: f8520023	ldr.w   r0, [r2, r3, lsl #2]
      0x00005b2c: 4487    	add     pc, r0
      0x00005b2e: 3c01    	subs    r4, #1
      0x00005b30: f00080b9	beq.w   +370 (0x00005ca6)
      0x00005b34: b009    	add     sp, sp, #36
      0x00005b36: e8bd8de0	pop     {r5, r6, r7, r8, r10, r11, pc}
      0x00005b3a: 2701    	movs    r7, #1
      0x00005b3c: 1c30    	mov     r0, r6
      0x00005b3e: 68c0    	ldr     r0, [r0, #12]
      0x00005b40: 1c29    	mov     r1, r5
      0x00005b42: 1c2a    	mov     r2, r5
      0x00005b44: f8d00108	ldr.w   r0, [r0, #264]
      0x00005b48: 1c3b    	mov     r3, r7
      0x00005b4a: f8d0e02c	ldr.w   lr, [r0, #44]
      0x00005b4e: 47f0    	blx     lr
      suspend point dex PC: 0x0029
      GC map objects:  v3 (r5), v4 (r11)
      0x00005b50: e7ed    	b       -38 (0x00005b2e)
      0x00005b52: 2700    	movs    r7, #0
      0x00005b54: 1c30    	mov     r0, r6
      0x00005b56: 68c0    	ldr     r0, [r0, #12]
      0x00005b58: 1c29    	mov     r1, r5
      0x00005b5a: 1c2a    	mov     r2, r5
      0x00005b5c: f8d00108	ldr.w   r0, [r0, #264]
      0x00005b60: 1c3b    	mov     r3, r7
      0x00005b62: f8d0e02c	ldr.w   lr, [r0, #44]
      0x00005b66: 47f0    	blx     lr
      suspend point dex PC: 0x002e
      GC map objects:  v3 (r5), v4 (r11)
      0x00005b68: e7e1    	b       -62 (0x00005b2e)
      0x00005b6a: 1c30    	mov     r0, r6
      0x00005b6c: 68c0    	ldr     r0, [r0, #12]
      0x00005b6e: 1c29    	mov     r1, r5
      0x00005b70: 1c2a    	mov     r2, r5
      0x00005b72: f8d00118	ldr.w   r0, [r0, #280]
      0x00005b76: f8d0e02c	ldr.w   lr, [r0, #44]
      0x00005b7a: 47f0    	blx     lr
      suspend point dex PC: 0x0032
      GC map objects:  v3 (r5), v4 (r11)
      0x00005b7c: e7d7    	b       -82 (0x00005b2e)
      0x00005b7e: 1c30    	mov     r0, r6
      0x00005b80: 68c0    	ldr     r0, [r0, #12]
      0x00005b82: 1c29    	mov     r1, r5
      0x00005b84: f8d000fc	ldr.w   r0, [r0, #252]
      0x00005b88: f8d0e02c	ldr.w   lr, [r0, #44]
      0x00005b8c: 47f0    	blx     lr
      suspend point dex PC: 0x000c
      GC map objects:  v3 (r5), v4 (r11)
      0x00005b8e: e7ce    	b       -100 (0x00005b2e)
      0x00005b90: 1c30    	mov     r0, r6
      0x00005b92: 68c0    	ldr     r0, [r0, #12]
      0x00005b94: 1c29    	mov     r1, r5
      0x00005b96: f8d0010c	ldr.w   r0, [r0, #268]
      0x00005b9a: f8d0e02c	ldr.w   lr, [r0, #44]
      0x00005b9e: 47f0    	blx     lr
      suspend point dex PC: 0x0008
      GC map objects:  v3 (r5), v4 (r11)
      0x00005ba0: e7c5    	b       -118 (0x00005b2e)
      0x00005ba2: 1c30    	mov     r0, r6
      0x00005ba4: 68c0    	ldr     r0, [r0, #12]
      0x00005ba6: 1c29    	mov     r1, r5
      0x00005ba8: f8d00104	ldr.w   r0, [r0, #260]
      0x00005bac: f8d0e02c	ldr.w   lr, [r0, #44]
      0x00005bb0: 47f0    	blx     lr
      suspend point dex PC: 0x0010
      GC map objects:  v3 (r5), v4 (r11)
      0x00005bb2: e7bc    	b       -136 (0x00005b2e)
      0x00005bb4: 1c30    	mov     r0, r6
      0x00005bb6: 68c0    	ldr     r0, [r0, #12]
      0x00005bb8: 1c29    	mov     r1, r5
      0x00005bba: f8d00110	ldr.w   r0, [r0, #272]
      0x00005bbe: f8d0e02c	ldr.w   lr, [r0, #44]
      0x00005bc2: 47f0    	blx     lr
      suspend point dex PC: 0x0014
      GC map objects:  v3 (r5), v4 (r11)
      0x00005bc4: e7b3    	b       -154 (0x00005b2e)
      0x00005bc6: 1c30    	mov     r0, r6
      0x00005bc8: 68c0    	ldr     r0, [r0, #12]
      0x00005bca: 1c29    	mov     r1, r5
      0x00005bcc: f8d00114	ldr.w   r0, [r0, #276]
      0x00005bd0: f8d0e02c	ldr.w   lr, [r0, #44]
      0x00005bd4: 47f0    	blx     lr
      suspend point dex PC: 0x0018
      GC map objects:  v3 (r5), v4 (r11)
      0x00005bd6: e7aa    	b       -172 (0x00005b2e)
      0x00005bd8: 1c30    	mov     r0, r6
      0x00005bda: 68c0    	ldr     r0, [r0, #12]
      0x00005bdc: 1c29    	mov     r1, r5
      0x00005bde: f8d00100	ldr.w   r0, [r0, #256]
      0x00005be2: f8d0e02c	ldr.w   lr, [r0, #44]
      0x00005be6: 47f0    	blx     lr
      suspend point dex PC: 0x001c
      GC map objects:  v3 (r5), v4 (r11)
      0x00005be8: e7a1    	b       -190 (0x00005b2e)
      0x00005bea: 3c01    	subs    r4, #1
      0x00005bec: f47faf9f	bne.w   -194 (0x00005b2e)
      0x00005bf0: e05d    	b       +186 (0x00005cae)
      0x00005bf2: 1c30    	mov     r0, r6
      0x00005bf4: 68c0    	ldr     r0, [r0, #12]
      0x00005bf6: 1c29    	mov     r1, r5
      0x00005bf8: f8d0009c	ldr.w   r0, [r0, #156]
      0x00005bfc: f8d0e02c	ldr.w   lr, [r0, #44]
      0x00005c00: 47f0    	blx     lr
      suspend point dex PC: 0x0024
      GC map objects:  v3 (r5), v4 (r11)
      0x00005c02: e794    	b       -216 (0x00005b2e)
      0x00005c04: 1c30    	mov     r0, r6
      0x00005c06: 68c0    	ldr     r0, [r0, #12]
      0x00005c08: 1c29    	mov     r1, r5
      0x00005c0a: f8d000c0	ldr.w   r0, [r0, #192]
      0x00005c0e: f8d0e02c	ldr.w   lr, [r0, #44]
      0x00005c12: 47f0    	blx     lr
      suspend point dex PC: 0x0036
      GC map objects:  v3 (r5), v4 (r11)
      0x00005c14: e78b    	b       -234 (0x00005b2e)
      0x00005c16: f8d9e12c	ldr.w   lr, [r9, #300]  ; pAllocObjectInitialized
      0x00005c1a: 1c31    	mov     r1, r6
      0x00005c1c: f64670e8	movw    r0, #28648
      0x00005c20: f2c70048	movt    r0, #28744
      0x00005c24: 47f0    	blx     lr
      suspend point dex PC: 0x003a
      GC map objects:  v3 (r5), v4 (r11)
      0x00005c26: f8d9e148	ldr.w   lr, [r9, #328]  ; pInitializeTypeAndVerifyAccess
      0x00005c2a: 4680    	mov     r8, r0
      0x00005c2c: 1c31    	mov     r1, r6
      0x00005c2e: 2017    	movs    r0, #23
      0x00005c30: 47f0    	blx     lr
      suspend point dex PC: 0x003c
      GC map objects:  v0 (r8), v3 (r5), v4 (r11)
      0x00005c32: 1c07    	mov     r7, r0
      0x00005c34: f2442edd	movw    lr, #17117
      0x00005c38: f2c73e06	movt    lr, #29446
      0x00005c3c: f24c0068	movw    r0, #49256
      0x00005c40: f6c670e1	movt    r0, #28641
      0x00005c44: 4641    	mov     r1, r8
      0x00005c46: 1c2a    	mov     r2, r5
      0x00005c48: 1c3b    	mov     r3, r7
      0x00005c4a: 47f0    	blx     lr
      suspend point dex PC: 0x003e
      GC map objects:  v0 (r8), v2 (r7), v3 (r5), v4 (r11)
      0x00005c4c: 1c29    	mov     r1, r5
      0x00005c4e: 6808    	ldr     r0, [r1, #0]
      0x00005c50: 4642    	mov     r2, r8
      0x00005c52: f8d00348	ldr.w   r0, [r0, #840]
      0x00005c56: f8d0e02c	ldr.w   lr, [r0, #44]
      0x00005c5a: 47f0    	blx     lr
      suspend point dex PC: 0x0041
      GC map objects:  v0 (r8), v2 (r7), v3 (r5), v4 (r11)
      0x00005c5c: e767    	b       -306 (0x00005b2e)
      0x00005c5e: f8d9e12c	ldr.w   lr, [r9, #300]  ; pAllocObjectInitialized
      0x00005c62: 1c31    	mov     r1, r6
      0x00005c64: f64670e8	movw    r0, #28648
      0x00005c68: f2c70048	movt    r0, #28744
      0x00005c6c: 47f0    	blx     lr
      suspend point dex PC: 0x0045
      GC map objects:  v3 (r5), v4 (r11)
      0x00005c6e: f8d9e148	ldr.w   lr, [r9, #328]  ; pInitializeTypeAndVerifyAccess
      0x00005c72: 4682    	mov     r10, r0
      0x00005c74: 1c31    	mov     r1, r6
      0x00005c76: 2019    	movs    r0, #25
      0x00005c78: 47f0    	blx     lr
      suspend point dex PC: 0x0047
      GC map objects:  v1 (r10), v3 (r5), v4 (r11)
      0x00005c7a: 1c07    	mov     r7, r0
      0x00005c7c: f2442edd	movw    lr, #17117
      0x00005c80: f2c73e06	movt    lr, #29446
      0x00005c84: f24c0068	movw    r0, #49256
      0x00005c88: f6c670e1	movt    r0, #28641
      0x00005c8c: 4651    	mov     r1, r10
      0x00005c8e: 1c2a    	mov     r2, r5
      0x00005c90: 1c3b    	mov     r3, r7
      0x00005c92: 47f0    	blx     lr
      suspend point dex PC: 0x0049
      GC map objects:  v1 (r10), v2 (r7), v3 (r5), v4 (r11)
      0x00005c94: 1c29    	mov     r1, r5
      0x00005c96: 6808    	ldr     r0, [r1, #0]
      0x00005c98: 4652    	mov     r2, r10
      0x00005c9a: f8d00348	ldr.w   r0, [r0, #840]
      0x00005c9e: f8d0e02c	ldr.w   lr, [r0, #44]
      0x00005ca2: 47f0    	blx     lr
      suspend point dex PC: 0x004c
      GC map objects:  v1 (r10), v2 (r7), v3 (r5), v4 (r11)
      0x00005ca4: e743    	b       -378 (0x00005b2e)
      0x00005ca6: f8d9e230	ldr.w   lr, [r9, #560]  ; pTestSuspend
      0x00005caa: 47f0    	blx     lr
      suspend point dex PC: 0x0007
      0x00005cac: e742    	b       -380 (0x00005b34)
      0x00005cae: f8d9e230	ldr.w   lr, [r9, #560]  ; pTestSuspend
      0x00005cb2: 47f0    	blx     lr
      suspend point dex PC: 0x0023
      GC map objects:  v3 (r5), v4 (r11)
      0x00005cb4: e73b    	b       -394 (0x00005b2e)
      0x00005cb6: 0000    	lsls    r0, r0, #0
      0x00005cb8: 000a    	lsls    r2, r1, #0
      0x00005cba: 0000    	lsls    r0, r0, #0
      0x00005cbc: 0022    	lsls    r2, r4, #0
      0x00005cbe: 0000    	lsls    r0, r0, #0
      0x00005cc0: 003a    	lsls    r2, r7, #0
      0x00005cc2: 0000    	lsls    r0, r0, #0
      0x00005cc4: fffeffff	UNKNOWN 127 
      0x00005cc8: fffeffff	UNKNOWN 127 
      0x00005ccc: 004e    	lsls    r6, r1, #1
      0x00005cce: 0000    	lsls    r0, r0, #0
      0x00005cd0: 0060    	lsls    r0, r4, #1
      0x00005cd2: 0000    	lsls    r0, r0, #0
      0x00005cd4: 0072    	lsls    r2, r6, #1
      0x00005cd6: 0000    	lsls    r0, r0, #0
      0x00005cd8: 0084    	lsls    r4, r0, #2
      0x00005cda: 0000    	lsls    r0, r0, #0
      0x00005cdc: 0096    	lsls    r6, r2, #2
      0x00005cde: 0000    	lsls    r0, r0, #0
      0x00005ce0: 00a8    	lsls    r0, r5, #2
      0x00005ce2: 0000    	lsls    r0, r0, #0
      0x00005ce4: 00ba    	lsls    r2, r7, #2
      0x00005ce6: 0000    	lsls    r0, r0, #0
      0x00005ce8: 00c2    	lsls    r2, r0, #3
      0x00005cea: 0000    	lsls    r0, r0, #0
      0x00005cec: 00d4    	lsls    r4, r2, #3
      0x00005cee: 0000    	lsls    r0, r0, #0
      0x00005cf0: 00e6    	lsls    r6, r4, #3
      0x00005cf2: 0000    	lsls    r0, r0, #0
      0x00005cf4: 012e    	lsls    r6, r5, #4
      0x00005cf6: 0000    	lsls    r0, r0, #0
  24: void com.weidian.sample.MainActivity.onCreate(android.os.Bundle) (dex_method_idx=43)
    DEX CODE:
      0x0000: invoke-super {v1, v2}, void android.app.Activity.onCreate(android.os.Bundle) // method@1
      0x0003: const v0, #+2130968602
      0x0006: invoke-virtual {v1, v0}, void com.weidian.sample.MainActivity.setContentView(int) // method@49
      0x0009: invoke-direct {v1}, void com.weidian.sample.MainActivity.initView() // method@35
      0x000c: invoke-direct {v1}, void com.weidian.sample.MainActivity.initBroadcast() // method@34
      0x000f: return-void
    OatMethodOffsets (offset=0x00002b40)
      code_offset: 0x00005d15 
      gc_map: (offset=0x00002f38)
    OatQuickMethodHeader (offset=0x00005cf8)
      mapping_table: (offset=0x00003294)
      vmap_table: (offset=0x0000338e)
      v1/r5, v65534/r6, v0/r7, v2/r8, v65535/r15
    QuickMethodFrameInfo
      frame_size_in_bytes: 48
      core_spill_mask: 0x000081e0 (r5, r6, r7, r8, r15)
      fp_spill_mask: 0x00000000 
    CODE: (code_offset=0x00005d15 size_offset=0x00005d10 size=120)...
      0x00005d14: f5bd5c00	subs    r12, sp, #8192
      0x00005d18: f8dcc000	ldr.w   r12, [r12, #0]
      suspend point dex PC: 0x0000
      GC map objects:  v1 (r5), v2 (r8)
      0x00005d1c: e92d41e0	push    {r5, r6, r7, r8, lr}
      0x00005d20: b087    	sub     sp, sp, #28
      0x00005d22: 1c06    	mov     r6, r0
      0x00005d24: 9000    	str     r0, [sp, #0]
      0x00005d26: 1c0d    	mov     r5, r1
      0x00005d28: 4690    	mov     r8, r2
      0x00005d2a: f6413efd	movw    lr, #7165
      0x00005d2e: f2c72ef2	movt    lr, #29426
      0x00005d32: f64940c8	movw    r0, #40136
      0x00005d36: f6c670de	movt    r0, #28638
      0x00005d3a: 1c29    	mov     r1, r5
      0x00005d3c: 4642    	mov     r2, r8
      0x00005d3e: 47f0    	blx     lr
      suspend point dex PC: 0x0000
      GC map objects:  v1 (r5), v2 (r8)
      0x00005d40: f240071a	movw    r7, #26
      0x00005d44: f6c77704	movt    r7, #32516
      0x00005d48: 1c29    	mov     r1, r5
      0x00005d4a: 6808    	ldr     r0, [r1, #0]
      0x00005d4c: 1c3a    	mov     r2, r7
      0x00005d4e: f8d00670	ldr.w   r0, [r0, #1648]
      0x00005d52: f8d0e02c	ldr.w   lr, [r0, #44]
      0x00005d56: 47f0    	blx     lr
      suspend point dex PC: 0x0006
      GC map objects:  v1 (r5), v2 (r8)
      0x00005d58: 1c30    	mov     r0, r6
      0x00005d5a: 68c0    	ldr     r0, [r0, #12]
      0x00005d5c: 1c29    	mov     r1, r5
      0x00005d5e: f8d00098	ldr.w   r0, [r0, #152]
      0x00005d62: f8d0e02c	ldr.w   lr, [r0, #44]
      0x00005d66: 47f0    	blx     lr
      suspend point dex PC: 0x0009
      GC map objects:  v1 (r5), v2 (r8)
      0x00005d68: 1c30    	mov     r0, r6
      0x00005d6a: 68c0    	ldr     r0, [r0, #12]
      0x00005d6c: 1c29    	mov     r1, r5
      0x00005d6e: f8d00094	ldr.w   r0, [r0, #148]
      0x00005d72: f8d0e02c	ldr.w   lr, [r0, #44]
      0x00005d76: 47f0    	blx     lr
      suspend point dex PC: 0x000c
      GC map objects:  v1 (r5), v2 (r8)
      0x00005d78: 3c01    	subs    r4, #1
      0x00005d7a: f0008003	beq.w   +6 (0x00005d84)
      0x00005d7e: b007    	add     sp, sp, #28
      0x00005d80: e8bd81e0	pop     {r5, r6, r7, r8, pc}
      0x00005d84: f8d9e230	ldr.w   lr, [r9, #560]  ; pTestSuspend
      0x00005d88: 47f0    	blx     lr
      suspend point dex PC: 0x000f
      0x00005d8a: e7f8    	b       -16 (0x00005d7e)
  25: void com.weidian.sample.MainActivity.onDestroy() (dex_method_idx=44)
    DEX CODE:
      0x0000: invoke-super {v1}, void android.app.Activity.onDestroy() // method@2
      0x0003: iget-object v0, v1, Landroid/content/BroadcastReceiver; com.weidian.sample.MainActivity.receiver // field@7
      0x0005: if-eqz v0, +7
      0x0007: iget-object v0, v1, Landroid/content/BroadcastReceiver; com.weidian.sample.MainActivity.receiver // field@7
      0x0009: invoke-virtual {v1, v0}, void com.weidian.sample.MainActivity.unregisterReceiver(android.content.BroadcastReceiver) // method@70
      0x000c: return-void
    OatMethodOffsets (offset=0x00002b44)
      code_offset: 0x00005dad 
      gc_map: (offset=0x00002f48)
    OatQuickMethodHeader (offset=0x00005d90)
      mapping_table: (offset=0x000032a2)
      vmap_table: (offset=0x00003394)
      v1/r5, v0/r6, v65534/r7, v65535/r15
    QuickMethodFrameInfo
      frame_size_in_bytes: 48
      core_spill_mask: 0x000080e0 (r5, r6, r7, r15)
      fp_spill_mask: 0x00000000 
    CODE: (code_offset=0x00005dad size_offset=0x00005da8 size=88)...
      0x00005dac: f5bd5c00	subs    r12, sp, #8192
      0x00005db0: f8dcc000	ldr.w   r12, [r12, #0]
      suspend point dex PC: 0x0000
      GC map objects:  v1 (r5)
      0x00005db4: e92d40e0	push    {r5, r6, r7, lr}
      0x00005db8: b088    	sub     sp, sp, #32
      0x00005dba: 1c07    	mov     r7, r0
      0x00005dbc: 9000    	str     r0, [sp, #0]
      0x00005dbe: 1c0d    	mov     r5, r1
      0x00005dc0: f6417ef5	movw    lr, #8181
      0x00005dc4: f2c72ef2	movt    lr, #29426
      0x00005dc8: f6496048	movw    r0, #40520
      0x00005dcc: f6c670de	movt    r0, #28638
      0x00005dd0: 1c29    	mov     r1, r5
      0x00005dd2: 47f0    	blx     lr
      suspend point dex PC: 0x0000
      GC map objects:  v1 (r5)
      0x00005dd4: f8d5611c	ldr.w   r6, [r5, #284]
      0x00005dd8: b14e    	cbz     r6, +18 (0x00005dee)
      0x00005dda: f8d5611c	ldr.w   r6, [r5, #284]
      0x00005dde: 1c29    	mov     r1, r5
      0x00005de0: 6808    	ldr     r0, [r1, #0]
      0x00005de2: 1c32    	mov     r2, r6
      0x00005de4: f8d0037c	ldr.w   r0, [r0, #892]
      0x00005de8: f8d0e02c	ldr.w   lr, [r0, #44]
      0x00005dec: 47f0    	blx     lr
      suspend point dex PC: 0x0009
      GC map objects:  v0 (r6), v1 (r5)
      0x00005dee: 3c01    	subs    r4, #1
      0x00005df0: f0008003	beq.w   +6 (0x00005dfa)
      0x00005df4: b008    	add     sp, sp, #32
      0x00005df6: e8bd80e0	pop     {r5, r6, r7, pc}
      0x00005dfa: f8d9e230	ldr.w   lr, [r9, #560]  ; pTestSuspend
      0x00005dfe: 47f0    	blx     lr
      suspend point dex PC: 0x000c
      0x00005e00: e7f8    	b       -16 (0x00005df4)
      0x00005e02: 0000    	lsls    r0, r0, #0
  26: void com.weidian.sample.MainActivity.preTest(android.view.View) (dex_method_idx=46)
    DEX CODE:
      0x0000: const-string v0, "TAG" // string@67
      0x0002: new-instance v1, java.lang.StringBuilder // type@44
      0x0004: invoke-direct {v1}, void java.lang.StringBuilder.<init>() // method@95
      0x0007: const-string v2, "patch patch " // string@153
      0x0009: invoke-virtual {v1, v2}, java.lang.StringBuilder java.lang.StringBuilder.append(java.lang.String) // method@97
      0x000c: move-result-object v1
      0x000d: invoke-static {}, java.lang.String com.weidian.sample.Test.getName() // method@71
      0x0010: move-result-object v2
      0x0011: invoke-virtual {v1, v2}, java.lang.StringBuilder java.lang.StringBuilder.append(java.lang.String) // method@97
      0x0014: move-result-object v1
      0x0015: invoke-virtual {v1}, java.lang.String java.lang.StringBuilder.toString() // method@98
      0x0018: move-result-object v1
      0x0019: invoke-static {v0, v1}, int android.util.Log.d(java.lang.String, java.lang.String) // method@13
      0x001c: return-void
    OatMethodOffsets (offset=0x00002b48)
      code_offset: 0x00005e25 
      gc_map: (offset=0x00002f54)
    OatQuickMethodHeader (offset=0x00005e08)
      mapping_table: (offset=0x000032ac)
      vmap_table: (offset=0x00003399)
      v65534/r5, v1/r6, v2/r7, v0/r8, v65535/r15
    QuickMethodFrameInfo
      frame_size_in_bytes: 48
      core_spill_mask: 0x000081e0 (r5, r6, r7, r8, r15)
      fp_spill_mask: 0x00000000 
    CODE: (code_offset=0x00005e25 size_offset=0x00005e20 size=244)...
      0x00005e24: f5bd5c00	subs    r12, sp, #8192
      0x00005e28: f8dcc000	ldr.w   r12, [r12, #0]
      suspend point dex PC: 0x0000
      GC map objects:  v3 ([sp + #52]), v4 ([sp + #56])
      0x00005e2c: e92d41e0	push    {r5, r6, r7, r8, lr}
      0x00005e30: b087    	sub     sp, sp, #28
      0x00005e32: 1c05    	mov     r5, r0
      0x00005e34: 9000    	str     r0, [sp, #0]
      0x00005e36: 910d    	str     r1, [sp, #52]
      0x00005e38: 920e    	str     r2, [sp, #56]
      0x00005e3a: 68a8    	ldr     r0, [r5, #8]
      0x00005e3c: 6940    	ldr     r0, [r0, #20]
      0x00005e3e: f8d00118	ldr.w   r0, [r0, #280]
      0x00005e42: 2800    	cmp     r0, #0
      0x00005e44: d057    	beq     +174 (0x00005ef6)
      0x00005e46: f8d9e12c	ldr.w   lr, [r9, #300]  ; pAllocObjectInitialized
      0x00005e4a: 4680    	mov     r8, r0
      0x00005e4c: 1c29    	mov     r1, r5
      0x00005e4e: f24010e0	movw    r0, #480
      0x00005e52: f2c70040	movt    r0, #28736
      0x00005e56: 47f0    	blx     lr
      suspend point dex PC: 0x0002
      GC map objects:  v0 (r8), v3 ([sp + #52]), v4 ([sp + #56])
      0x00005e58: 1c06    	mov     r6, r0
      0x00005e5a: f64f6e9d	movw    lr, #65181
      0x00005e5e: f2c72e0e	movt    lr, #29198
      0x00005e62: f64f5038	movw    r0, #64824
      0x00005e66: f6c670d4	movt    r0, #28628
      0x00005e6a: 1c31    	mov     r1, r6
      0x00005e6c: 47f0    	blx     lr
      suspend point dex PC: 0x0004
      GC map objects:  v0 (r8), v1 (r6), v3 ([sp + #52]), v4 ([sp + #56])
      0x00005e6e: 68a8    	ldr     r0, [r5, #8]
      0x00005e70: 6940    	ldr     r0, [r0, #20]
      0x00005e72: f8d00270	ldr.w   r0, [r0, #624]
      0x00005e76: 2800    	cmp     r0, #0
      0x00005e78: d043    	beq     +134 (0x00005f02)
      0x00005e7a: 1c07    	mov     r7, r0
      0x00005e7c: f6424e4d	movw    lr, #11341
      0x00005e80: f2c72e0f	movt    lr, #29199
      0x00005e84: f2401028	movw    r0, #296
      0x00005e88: f6c670d5	movt    r0, #28629
      0x00005e8c: 1c31    	mov     r1, r6
      0x00005e8e: 1c3a    	mov     r2, r7
      0x00005e90: 47f0    	blx     lr
      suspend point dex PC: 0x0009
      GC map objects:  v0 (r8), v1 (r6), v2 (r7), v3 ([sp + #52]), v4 ([sp + #56])
      0x00005e92: f8d9e224	ldr.w   lr, [r9, #548]  ; pInvokeStaticTrampolineWithAccessCheck
      0x00005e96: 1c06    	mov     r6, r0
      0x00005e98: 2047    	movs    r0, #71
      0x00005e9a: 47f0    	blx     lr
      suspend point dex PC: 0x000d
      GC map objects:  v0 (r8), v1 (r6), v2 (r7), v3 ([sp + #52]), v4 ([sp + #56])
      0x00005e9c: 1c07    	mov     r7, r0
      0x00005e9e: f6424e4d	movw    lr, #11341
      0x00005ea2: f2c72e0f	movt    lr, #29199
      0x00005ea6: f2401028	movw    r0, #296
      0x00005eaa: f6c670d5	movt    r0, #28629
      0x00005eae: 1c31    	mov     r1, r6
      0x00005eb0: 1c3a    	mov     r2, r7
      0x00005eb2: f8d1c000	ldr.w   r12, [r1, #0]
      suspend point dex PC: 0x0011
      GC map objects:  v0 (r8), v1 (r6), v2 (r7), v3 ([sp + #52]), v4 ([sp + #56])
      0x00005eb6: 47f0    	blx     lr
      suspend point dex PC: 0x0011
      GC map objects:  v0 (r8), v1 (r6), v2 (r7), v3 ([sp + #52]), v4 ([sp + #56])
      0x00005eb8: 1c06    	mov     r6, r0
      0x00005eba: f6433edd	movw    lr, #15325
      0x00005ebe: f2c72e0f	movt    lr, #29199
      0x00005ec2: f64f7078	movw    r0, #65400
      0x00005ec6: f6c670d4	movt    r0, #28628
      0x00005eca: 1c31    	mov     r1, r6
      0x00005ecc: f8d1c000	ldr.w   r12, [r1, #0]
      suspend point dex PC: 0x0015
      GC map objects:  v0 (r8), v1 (r6), v2 (r7), v3 ([sp + #52]), v4 ([sp + #56])
      0x00005ed0: 47f0    	blx     lr
      suspend point dex PC: 0x0015
      GC map objects:  v0 (r8), v1 (r6), v2 (r7), v3 ([sp + #52]), v4 ([sp + #56])
      0x00005ed2: 1c06    	mov     r6, r0
      0x00005ed4: f24a5e5d	movw    lr, #42333
      0x00005ed8: f2c73e25	movt    lr, #29477
      0x00005edc: f2457088	movw    r0, #22408
      0x00005ee0: f6c670e8	movt    r0, #28648
      0x00005ee4: 4641    	mov     r1, r8
      0x00005ee6: 1c32    	mov     r2, r6
      0x00005ee8: 47f0    	blx     lr
      suspend point dex PC: 0x0019
      GC map objects:  v0 (r8), v1 (r6), v2 (r7), v3 ([sp + #52]), v4 ([sp + #56])
      0x00005eea: 3c01    	subs    r4, #1
      0x00005eec: f000800f	beq.w   +30 (0x00005f0e)
      0x00005ef0: b007    	add     sp, sp, #28
      0x00005ef2: e8bd81e0	pop     {r5, r6, r7, r8, pc}
      0x00005ef6: f8d9e150	ldr.w   lr, [r9, #336]  ; pResolveString
      0x00005efa: 1c28    	mov     r0, r5
      0x00005efc: 2143    	movs    r1, #67
      0x00005efe: 47f0    	blx     lr
      suspend point dex PC: 0x0000
      GC map objects:  v3 ([sp + #52]), v4 ([sp + #56])
      0x00005f00: e7a1    	b       -190 (0x00005e46)
      0x00005f02: f8d9e150	ldr.w   lr, [r9, #336]  ; pResolveString
      0x00005f06: 1c28    	mov     r0, r5
      0x00005f08: 2199    	movs    r1, #153
      0x00005f0a: 47f0    	blx     lr
      suspend point dex PC: 0x0007
      GC map objects:  v0 (r8), v1 (r6), v3 ([sp + #52]), v4 ([sp + #56])
      0x00005f0c: e7b5    	b       -150 (0x00005e7a)
      0x00005f0e: f8d9e230	ldr.w   lr, [r9, #560]  ; pTestSuspend
      0x00005f12: 47f0    	blx     lr
      suspend point dex PC: 0x001c
      0x00005f14: e7ec    	b       -40 (0x00005ef0)
      0x00005f16: 0000    	lsls    r0, r0, #0
  27: void com.weidian.sample.MainActivity.startService1(android.view.View) (dex_method_idx=52)
    DEX CODE:
      0x0000: new-instance v0, android.content.Intent // type@5
      0x0002: invoke-direct {v0}, void android.content.Intent.<init>() // method@4
      0x0005: new-instance v1, android.content.ComponentName // type@3
      0x0007: const-string v2, "com.weidian.sample" // string@92
      0x0009: const-string v3, "com.weidian.sample.PluginService1" // string@95
      0x000b: invoke-direct {v1, v2, v3}, void android.content.ComponentName.<init>(java.lang.String, java.lang.String) // method@3
      0x000e: invoke-virtual {v0, v1}, android.content.Intent android.content.Intent.setComponent(android.content.ComponentName) // method@8
      0x0011: move-result-object v0
      0x0012: invoke-virtual {v4, v0}, android.content.ComponentName com.weidian.sample.MainActivity.startService(android.content.Intent) // method@51
      0x0015: return-void
    OatMethodOffsets (offset=0x00002b4c)
      code_offset: 0x00005f35 
      gc_map: (offset=0x00002eac)
    OatQuickMethodHeader (offset=0x00005f18)
      mapping_table: (offset=0x00003227)
      vmap_table: (offset=0x00003370)
      v65534/r5, v0/r6, v1/r7, v2/r8, v3/r10, v4/r11, v65535/r15
    QuickMethodFrameInfo
      frame_size_in_bytes: 64
      core_spill_mask: 0x00008de0 (r5, r6, r7, r8, r10, r11, r15)
      fp_spill_mask: 0x00000000 
    CODE: (code_offset=0x00005f35 size_offset=0x00005f30 size=212)...
      0x00005f34: f5bd5c00	subs    r12, sp, #8192
      0x00005f38: f8dcc000	ldr.w   r12, [r12, #0]
      suspend point dex PC: 0x0000
      GC map objects:  v4 (r11), v5 ([sp + #72])
      0x00005f3c: e92d4de0	push    {r5, r6, r7, r8, r10, r11, lr}
      0x00005f40: b089    	sub     sp, sp, #36
      0x00005f42: 1c05    	mov     r5, r0
      0x00005f44: 9000    	str     r0, [sp, #0]
      0x00005f46: 468b    	mov     r11, r1
      0x00005f48: 9212    	str     r2, [sp, #72]
      0x00005f4a: f8d9e12c	ldr.w   lr, [r9, #300]  ; pAllocObjectInitialized
      0x00005f4e: 1c29    	mov     r1, r5
      0x00005f50: f64670e8	movw    r0, #28648
      0x00005f54: f2c70048	movt    r0, #28744
      0x00005f58: 47f0    	blx     lr
      suspend point dex PC: 0x0000
      GC map objects:  v4 (r11), v5 ([sp + #72])
      0x00005f5a: 1c06    	mov     r6, r0
      0x00005f5c: f2442e95	movw    lr, #17045
      0x00005f60: f2c73e06	movt    lr, #29446
      0x00005f64: f24c0038	movw    r0, #49208
      0x00005f68: f6c670e1	movt    r0, #28641
      0x00005f6c: 1c31    	mov     r1, r6
      0x00005f6e: 47f0    	blx     lr
      suspend point dex PC: 0x0002
      GC map objects:  v0 (r6), v4 (r11), v5 ([sp + #72])
      0x00005f70: f8d9e12c	ldr.w   lr, [r9, #300]  ; pAllocObjectInitialized
      0x00005f74: 1c29    	mov     r1, r5
      0x00005f76: f24660f8	movw    r0, #26360
      0x00005f7a: f2c70048	movt    r0, #28744
      0x00005f7e: 47f0    	blx     lr
      suspend point dex PC: 0x0005
      GC map objects:  v0 (r6), v4 (r11), v5 ([sp + #72])
      0x00005f80: 1c07    	mov     r7, r0
      0x00005f82: 68a8    	ldr     r0, [r5, #8]
      0x00005f84: 6940    	ldr     r0, [r0, #20]
      0x00005f86: f8d0017c	ldr.w   r0, [r0, #380]
      0x00005f8a: b360    	cbz     r0, +88 (0x00005fe6)
      0x00005f8c: 4680    	mov     r8, r0
      0x00005f8e: 68a8    	ldr     r0, [r5, #8]
      0x00005f90: 6940    	ldr     r0, [r0, #20]
      0x00005f92: f8d00188	ldr.w   r0, [r0, #392]
      0x00005f96: b360    	cbz     r0, +88 (0x00005ff2)
      0x00005f98: 4682    	mov     r10, r0
      0x00005f9a: f6423e25	movw    lr, #11045
      0x00005f9e: f2c73e04	movt    lr, #29444
      0x00005fa2: f24a2038	movw    r0, #41528
      0x00005fa6: f6c670e1	movt    r0, #28641
      0x00005faa: 1c39    	mov     r1, r7
      0x00005fac: 4642    	mov     r2, r8
      0x00005fae: 4653    	mov     r3, r10
      0x00005fb0: 47f0    	blx     lr
      suspend point dex PC: 0x000b
      GC map objects:  v0 (r6), v1 (r7), v2 (r8), v3 (r10), v4 (r11), v5 ([sp + #72])
      0x00005fb2: f24b0e55	movw    lr, #45141
      0x00005fb6: f2c72e3a	movt    lr, #29242
      0x00005fba: f64d10b8	movw    r0, #55736
      0x00005fbe: f6c670e1	movt    r0, #28641
      0x00005fc2: 1c31    	mov     r1, r6
      0x00005fc4: 1c3a    	mov     r2, r7
      0x00005fc6: 47f0    	blx     lr
      suspend point dex PC: 0x000e
      GC map objects:  v0 (r6), v1 (r7), v2 (r8), v3 (r10), v4 (r11), v5 ([sp + #72])
      0x00005fc8: 1c06    	mov     r6, r0
      0x00005fca: 4659    	mov     r1, r11
      0x00005fcc: 6808    	ldr     r0, [r1, #0]
      0x00005fce: 1c32    	mov     r2, r6
      0x00005fd0: f8d00364	ldr.w   r0, [r0, #868]
      0x00005fd4: f8d0e02c	ldr.w   lr, [r0, #44]
      0x00005fd8: 47f0    	blx     lr
      suspend point dex PC: 0x0012
      GC map objects:  v0 (r6), v1 (r7), v2 (r8), v3 (r10), v4 (r11), v5 ([sp + #72])
      0x00005fda: 3c01    	subs    r4, #1
      0x00005fdc: f000800f	beq.w   +30 (0x00005ffe)
      0x00005fe0: b009    	add     sp, sp, #36
      0x00005fe2: e8bd8de0	pop     {r5, r6, r7, r8, r10, r11, pc}
      0x00005fe6: f8d9e150	ldr.w   lr, [r9, #336]  ; pResolveString
      0x00005fea: 1c28    	mov     r0, r5
      0x00005fec: 215c    	movs    r1, #92
      0x00005fee: 47f0    	blx     lr
      suspend point dex PC: 0x0007
      GC map objects:  v0 (r6), v1 (r7), v4 (r11), v5 ([sp + #72])
      0x00005ff0: e7cc    	b       -104 (0x00005f8c)
      0x00005ff2: f8d9e150	ldr.w   lr, [r9, #336]  ; pResolveString
      0x00005ff6: 1c28    	mov     r0, r5
      0x00005ff8: 215f    	movs    r1, #95
      0x00005ffa: 47f0    	blx     lr
      suspend point dex PC: 0x0009
      GC map objects:  v0 (r6), v1 (r7), v2 (r8), v4 (r11), v5 ([sp + #72])
      0x00005ffc: e7cc    	b       -104 (0x00005f98)
      0x00005ffe: f8d9e230	ldr.w   lr, [r9, #560]  ; pTestSuspend
      0x00006002: 47f0    	blx     lr
      suspend point dex PC: 0x0015
      0x00006004: e7ec    	b       -40 (0x00005fe0)
      0x00006006: 0000    	lsls    r0, r0, #0
  28: void com.weidian.sample.MainActivity.startService2(android.view.View) (dex_method_idx=53)
    DEX CODE:
      0x0000: new-instance v0, android.content.Intent // type@5
      0x0002: invoke-direct {v0}, void android.content.Intent.<init>() // method@4
      0x0005: new-instance v1, android.content.ComponentName // type@3
      0x0007: const-string v2, "com.weidian.sample" // string@92
      0x0009: const-string v3, "com.weidian.sample.PluginService2" // string@96
      0x000b: invoke-direct {v1, v2, v3}, void android.content.ComponentName.<init>(java.lang.String, java.lang.String) // method@3
      0x000e: invoke-virtual {v0, v1}, android.content.Intent android.content.Intent.setComponent(android.content.ComponentName) // method@8
      0x0011: const-string v1, "is_remote" // string@133
      0x0013: const/4 v2, #+1
      0x0014: invoke-virtual {v0, v1, v2}, android.content.Intent android.content.Intent.putExtra(java.lang.String, boolean) // method@7
      0x0017: invoke-virtual {v4, v0}, android.content.ComponentName com.weidian.sample.MainActivity.startService(android.content.Intent) // method@51
      0x001a: return-void
    OatMethodOffsets (offset=0x00002b50)
      code_offset: 0x00006025 
      gc_map: (offset=0x00002f72)
    OatQuickMethodHeader (offset=0x00006008)
      mapping_table: (offset=0x000032c8)
      vmap_table: (offset=0x00003370)
      v65534/r5, v0/r6, v1/r7, v2/r8, v3/r10, v4/r11, v65535/r15
    QuickMethodFrameInfo
      frame_size_in_bytes: 64
      core_spill_mask: 0x00008de0 (r5, r6, r7, r8, r10, r11, r15)
      fp_spill_mask: 0x00000000 
    CODE: (code_offset=0x00006025 size_offset=0x00006020 size=260)...
      0x00006024: f5bd5c00	subs    r12, sp, #8192
      0x00006028: f8dcc000	ldr.w   r12, [r12, #0]
      suspend point dex PC: 0x0000
      GC map objects:  v4 (r11), v5 ([sp + #72])
      0x0000602c: e92d4de0	push    {r5, r6, r7, r8, r10, r11, lr}
      0x00006030: b089    	sub     sp, sp, #36
      0x00006032: 1c05    	mov     r5, r0
      0x00006034: 9000    	str     r0, [sp, #0]
      0x00006036: 468b    	mov     r11, r1
      0x00006038: 9212    	str     r2, [sp, #72]
      0x0000603a: f8d9e12c	ldr.w   lr, [r9, #300]  ; pAllocObjectInitialized
      0x0000603e: 1c29    	mov     r1, r5
      0x00006040: f64670e8	movw    r0, #28648
      0x00006044: f2c70048	movt    r0, #28744
      0x00006048: 47f0    	blx     lr
      suspend point dex PC: 0x0000
      GC map objects:  v4 (r11), v5 ([sp + #72])
      0x0000604a: 1c06    	mov     r6, r0
      0x0000604c: f2442e95	movw    lr, #17045
      0x00006050: f2c73e06	movt    lr, #29446
      0x00006054: f24c0038	movw    r0, #49208
      0x00006058: f6c670e1	movt    r0, #28641
      0x0000605c: 1c31    	mov     r1, r6
      0x0000605e: 47f0    	blx     lr
      suspend point dex PC: 0x0002
      GC map objects:  v0 (r6), v4 (r11), v5 ([sp + #72])
      0x00006060: f8d9e12c	ldr.w   lr, [r9, #300]  ; pAllocObjectInitialized
      0x00006064: 1c29    	mov     r1, r5
      0x00006066: f24660f8	movw    r0, #26360
      0x0000606a: f2c70048	movt    r0, #28744
      0x0000606e: 47f0    	blx     lr
      suspend point dex PC: 0x0005
      GC map objects:  v0 (r6), v4 (r11), v5 ([sp + #72])
      0x00006070: 1c07    	mov     r7, r0
      0x00006072: 68a8    	ldr     r0, [r5, #8]
      0x00006074: 6940    	ldr     r0, [r0, #20]
      0x00006076: f8d0017c	ldr.w   r0, [r0, #380]
      0x0000607a: b3f8    	cbz     r0, +126 (0x000060fc)
      0x0000607c: 4680    	mov     r8, r0
      0x0000607e: 68a8    	ldr     r0, [r5, #8]
      0x00006080: 6940    	ldr     r0, [r0, #20]
      0x00006082: f8d0018c	ldr.w   r0, [r0, #396]
      0x00006086: b3f8    	cbz     r0, +126 (0x00006108)
      0x00006088: 4682    	mov     r10, r0
      0x0000608a: f6423e25	movw    lr, #11045
      0x0000608e: f2c73e04	movt    lr, #29444
      0x00006092: f24a2038	movw    r0, #41528
      0x00006096: f6c670e1	movt    r0, #28641
      0x0000609a: 1c39    	mov     r1, r7
      0x0000609c: 4642    	mov     r2, r8
      0x0000609e: 4653    	mov     r3, r10
      0x000060a0: 47f0    	blx     lr
      suspend point dex PC: 0x000b
      GC map objects:  v0 (r6), v1 (r7), v2 (r8), v3 (r10), v4 (r11), v5 ([sp + #72])
      0x000060a2: f24b0e55	movw    lr, #45141
      0x000060a6: f2c72e3a	movt    lr, #29242
      0x000060aa: f64d10b8	movw    r0, #55736
      0x000060ae: f6c670e1	movt    r0, #28641
      0x000060b2: 1c31    	mov     r1, r6
      0x000060b4: 1c3a    	mov     r2, r7
      0x000060b6: 47f0    	blx     lr
      suspend point dex PC: 0x000e
      GC map objects:  v0 (r6), v1 (r7), v2 (r8), v3 (r10), v4 (r11), v5 ([sp + #72])
      0x000060b8: 68a8    	ldr     r0, [r5, #8]
      0x000060ba: 6940    	ldr     r0, [r0, #20]
      0x000060bc: f8d00220	ldr.w   r0, [r0, #544]
      0x000060c0: b340    	cbz     r0, +80 (0x00006114)
      0x000060c2: 1c07    	mov     r7, r0
      0x000060c4: f04f0801	mov.w   r8, #1
      0x000060c8: f24b0ee5	movw    lr, #45285
      0x000060cc: f2c73e06	movt    lr, #29446
      0x000060d0: f24d3028	movw    r0, #54056
      0x000060d4: f6c670e1	movt    r0, #28641
      0x000060d8: 1c31    	mov     r1, r6
      0x000060da: 1c3a    	mov     r2, r7
      0x000060dc: 4643    	mov     r3, r8
      0x000060de: 47f0    	blx     lr
      suspend point dex PC: 0x0014
      GC map objects:  v0 (r6), v1 (r7), v3 (r10), v4 (r11), v5 ([sp + #72])
      0x000060e0: 4659    	mov     r1, r11
      0x000060e2: 6808    	ldr     r0, [r1, #0]
      0x000060e4: 1c32    	mov     r2, r6
      0x000060e6: f8d00364	ldr.w   r0, [r0, #868]
      0x000060ea: f8d0e02c	ldr.w   lr, [r0, #44]
      0x000060ee: 47f0    	blx     lr
      suspend point dex PC: 0x0017
      GC map objects:  v0 (r6), v1 (r7), v3 (r10), v4 (r11), v5 ([sp + #72])
      0x000060f0: 3c01    	subs    r4, #1
      0x000060f2: f0008015	beq.w   +42 (0x00006120)
      0x000060f6: b009    	add     sp, sp, #36
      0x000060f8: e8bd8de0	pop     {r5, r6, r7, r8, r10, r11, pc}
      0x000060fc: f8d9e150	ldr.w   lr, [r9, #336]  ; pResolveString
      0x00006100: 1c28    	mov     r0, r5
      0x00006102: 215c    	movs    r1, #92
      0x00006104: 47f0    	blx     lr
      suspend point dex PC: 0x0007
      GC map objects:  v0 (r6), v1 (r7), v4 (r11), v5 ([sp + #72])
      0x00006106: e7b9    	b       -142 (0x0000607c)
      0x00006108: f8d9e150	ldr.w   lr, [r9, #336]  ; pResolveString
      0x0000610c: 1c28    	mov     r0, r5
      0x0000610e: 2160    	movs    r1, #96
      0x00006110: 47f0    	blx     lr
      suspend point dex PC: 0x0009
      GC map objects:  v0 (r6), v1 (r7), v2 (r8), v4 (r11), v5 ([sp + #72])
      0x00006112: e7b9    	b       -142 (0x00006088)
      0x00006114: f8d9e150	ldr.w   lr, [r9, #336]  ; pResolveString
      0x00006118: 1c28    	mov     r0, r5
      0x0000611a: 2185    	movs    r1, #133
      0x0000611c: 47f0    	blx     lr
      suspend point dex PC: 0x0011
      GC map objects:  v0 (r6), v1 (r7), v2 (r8), v3 (r10), v4 (r11), v5 ([sp + #72])
      0x0000611e: e7d0    	b       -96 (0x000060c2)
      0x00006120: f8d9e230	ldr.w   lr, [r9, #560]  ; pTestSuspend
      0x00006124: 47f0    	blx     lr
      suspend point dex PC: 0x001a
      0x00006126: e7e6    	b       -52 (0x000060f6)
  29: void com.weidian.sample.MainActivity.staticRegister(android.view.View) (dex_method_idx=54)
    DEX CODE:
      0x0000: new-instance v0, android.content.Intent // type@5
      0x0002: const-string v1, "static" // string@178
      0x0004: invoke-direct {v0, v1}, void android.content.Intent.<init>(java.lang.String) // method@6
      0x0007: invoke-virtual {v2, v0}, void com.weidian.sample.MainActivity.sendBroadcast(android.content.Intent) // method@48
      0x000a: return-void
    OatMethodOffsets (offset=0x00002b54)
      code_offset: 0x00006145 
      gc_map: (offset=0x00002edc)
    OatQuickMethodHeader (offset=0x00006128)
      mapping_table: (offset=0x00003253)
      vmap_table: (offset=0x00003380)
      v65534/r5, v0/r6, v1/r7, v2/r8, v65535/r15
    QuickMethodFrameInfo
      frame_size_in_bytes: 48
      core_spill_mask: 0x000081e0 (r5, r6, r7, r8, r15)
      fp_spill_mask: 0x00000000 
    CODE: (code_offset=0x00006145 size_offset=0x00006140 size=124)...
      0x00006144: f5bd5c00	subs    r12, sp, #8192
      0x00006148: f8dcc000	ldr.w   r12, [r12, #0]
      suspend point dex PC: 0x0000
      GC map objects:  v2 (r8), v3 ([sp + #56])
      0x0000614c: e92d41e0	push    {r5, r6, r7, r8, lr}
      0x00006150: b087    	sub     sp, sp, #28
      0x00006152: 1c05    	mov     r5, r0
      0x00006154: 9000    	str     r0, [sp, #0]
      0x00006156: 4688    	mov     r8, r1
      0x00006158: 920e    	str     r2, [sp, #56]
      0x0000615a: f8d9e12c	ldr.w   lr, [r9, #300]  ; pAllocObjectInitialized
      0x0000615e: 1c29    	mov     r1, r5
      0x00006160: f64670e8	movw    r0, #28648
      0x00006164: f2c70048	movt    r0, #28744
      0x00006168: 47f0    	blx     lr
      suspend point dex PC: 0x0000
      GC map objects:  v2 (r8), v3 ([sp + #56])
      0x0000616a: 1c06    	mov     r6, r0
      0x0000616c: 68a8    	ldr     r0, [r5, #8]
      0x0000616e: 6940    	ldr     r0, [r0, #20]
      0x00006170: f8d002d4	ldr.w   r0, [r0, #724]
      0x00006174: b1c8    	cbz     r0, +50 (0x000061aa)
      0x00006176: 1c07    	mov     r7, r0
      0x00006178: f2446e6d	movw    lr, #18029
      0x0000617c: f2c73e06	movt    lr, #29446
      0x00006180: f24c1028	movw    r0, #49448
      0x00006184: f6c670e1	movt    r0, #28641
      0x00006188: 1c31    	mov     r1, r6
      0x0000618a: 1c3a    	mov     r2, r7
      0x0000618c: 47f0    	blx     lr
      suspend point dex PC: 0x0004
      GC map objects:  v0 (r6), v1 (r7), v2 (r8), v3 ([sp + #56])
      0x0000618e: 4641    	mov     r1, r8
      0x00006190: 6808    	ldr     r0, [r1, #0]
      0x00006192: 1c32    	mov     r2, r6
      0x00006194: f8d002f8	ldr.w   r0, [r0, #760]
      0x00006198: f8d0e02c	ldr.w   lr, [r0, #44]
      0x0000619c: 47f0    	blx     lr
      suspend point dex PC: 0x0007
      GC map objects:  v0 (r6), v1 (r7), v2 (r8), v3 ([sp + #56])
      0x0000619e: 3c01    	subs    r4, #1
      0x000061a0: f0008009	beq.w   +18 (0x000061b6)
      0x000061a4: b007    	add     sp, sp, #28
      0x000061a6: e8bd81e0	pop     {r5, r6, r7, r8, pc}
      0x000061aa: f8d9e150	ldr.w   lr, [r9, #336]  ; pResolveString
      0x000061ae: 1c28    	mov     r0, r5
      0x000061b0: 21b2    	movs    r1, #178
      0x000061b2: 47f0    	blx     lr
      suspend point dex PC: 0x0002
      GC map objects:  v0 (r6), v2 (r8), v3 ([sp + #56])
      0x000061b4: e7df    	b       -66 (0x00006176)
      0x000061b6: f8d9e230	ldr.w   lr, [r9, #560]  ; pTestSuspend
      0x000061ba: 47f0    	blx     lr
      suspend point dex PC: 0x000a
      0x000061bc: e7f2    	b       -28 (0x000061a4)
      0x000061be: 0000    	lsls    r0, r0, #0
  30: void com.weidian.sample.MainActivity.stopService1(android.view.View) (dex_method_idx=56)
    DEX CODE:
      0x0000: new-instance v0, android.content.Intent // type@5
      0x0002: invoke-direct {v0}, void android.content.Intent.<init>() // method@4
      0x0005: new-instance v1, android.content.ComponentName // type@3
      0x0007: const-string v2, "com.weidian.sample" // string@92
      0x0009: const-string v3, "com.weidian.sample.PluginService1" // string@95
      0x000b: invoke-direct {v1, v2, v3}, void android.content.ComponentName.<init>(java.lang.String, java.lang.String) // method@3
      0x000e: invoke-virtual {v0, v1}, android.content.Intent android.content.Intent.setComponent(android.content.ComponentName) // method@8
      0x0011: move-result-object v0
      0x0012: invoke-virtual {v4, v0}, boolean com.weidian.sample.MainActivity.stopService(android.content.Intent) // method@55
      0x0015: return-void
    OatMethodOffsets (offset=0x00002b58)
      code_offset: 0x000061dd 
      gc_map: (offset=0x00002eac)
    OatQuickMethodHeader (offset=0x000061c0)
      mapping_table: (offset=0x00003227)
      vmap_table: (offset=0x00003370)
      v65534/r5, v0/r6, v1/r7, v2/r8, v3/r10, v4/r11, v65535/r15
    QuickMethodFrameInfo
      frame_size_in_bytes: 64
      core_spill_mask: 0x00008de0 (r5, r6, r7, r8, r10, r11, r15)
      fp_spill_mask: 0x00000000 
    CODE: (code_offset=0x000061dd size_offset=0x000061d8 size=212)...
      0x000061dc: f5bd5c00	subs    r12, sp, #8192
      0x000061e0: f8dcc000	ldr.w   r12, [r12, #0]
      suspend point dex PC: 0x0000
      GC map objects:  v4 (r11), v5 ([sp + #72])
      0x000061e4: e92d4de0	push    {r5, r6, r7, r8, r10, r11, lr}
      0x000061e8: b089    	sub     sp, sp, #36
      0x000061ea: 1c05    	mov     r5, r0
      0x000061ec: 9000    	str     r0, [sp, #0]
      0x000061ee: 468b    	mov     r11, r1
      0x000061f0: 9212    	str     r2, [sp, #72]
      0x000061f2: f8d9e12c	ldr.w   lr, [r9, #300]  ; pAllocObjectInitialized
      0x000061f6: 1c29    	mov     r1, r5
      0x000061f8: f64670e8	movw    r0, #28648
      0x000061fc: f2c70048	movt    r0, #28744
      0x00006200: 47f0    	blx     lr
      suspend point dex PC: 0x0000
      GC map objects:  v4 (r11), v5 ([sp + #72])
      0x00006202: 1c06    	mov     r6, r0
      0x00006204: f2442e95	movw    lr, #17045
      0x00006208: f2c73e06	movt    lr, #29446
      0x0000620c: f24c0038	movw    r0, #49208
      0x00006210: f6c670e1	movt    r0, #28641
      0x00006214: 1c31    	mov     r1, r6
      0x00006216: 47f0    	blx     lr
      suspend point dex PC: 0x0002
      GC map objects:  v0 (r6), v4 (r11), v5 ([sp + #72])
      0x00006218: f8d9e12c	ldr.w   lr, [r9, #300]  ; pAllocObjectInitialized
      0x0000621c: 1c29    	mov     r1, r5
      0x0000621e: f24660f8	movw    r0, #26360
      0x00006222: f2c70048	movt    r0, #28744
      0x00006226: 47f0    	blx     lr
      suspend point dex PC: 0x0005
      GC map objects:  v0 (r6), v4 (r11), v5 ([sp + #72])
      0x00006228: 1c07    	mov     r7, r0
      0x0000622a: 68a8    	ldr     r0, [r5, #8]
      0x0000622c: 6940    	ldr     r0, [r0, #20]
      0x0000622e: f8d0017c	ldr.w   r0, [r0, #380]
      0x00006232: b360    	cbz     r0, +88 (0x0000628e)
      0x00006234: 4680    	mov     r8, r0
      0x00006236: 68a8    	ldr     r0, [r5, #8]
      0x00006238: 6940    	ldr     r0, [r0, #20]
      0x0000623a: f8d00188	ldr.w   r0, [r0, #392]
      0x0000623e: b360    	cbz     r0, +88 (0x0000629a)
      0x00006240: 4682    	mov     r10, r0
      0x00006242: f6423e25	movw    lr, #11045
      0x00006246: f2c73e04	movt    lr, #29444
      0x0000624a: f24a2038	movw    r0, #41528
      0x0000624e: f6c670e1	movt    r0, #28641
      0x00006252: 1c39    	mov     r1, r7
      0x00006254: 4642    	mov     r2, r8
      0x00006256: 4653    	mov     r3, r10
      0x00006258: 47f0    	blx     lr
      suspend point dex PC: 0x000b
      GC map objects:  v0 (r6), v1 (r7), v2 (r8), v3 (r10), v4 (r11), v5 ([sp + #72])
      0x0000625a: f24b0e55	movw    lr, #45141
      0x0000625e: f2c72e3a	movt    lr, #29242
      0x00006262: f64d10b8	movw    r0, #55736
      0x00006266: f6c670e1	movt    r0, #28641
      0x0000626a: 1c31    	mov     r1, r6
      0x0000626c: 1c3a    	mov     r2, r7
      0x0000626e: 47f0    	blx     lr
      suspend point dex PC: 0x000e
      GC map objects:  v0 (r6), v1 (r7), v2 (r8), v3 (r10), v4 (r11), v5 ([sp + #72])
      0x00006270: 1c06    	mov     r6, r0
      0x00006272: 4659    	mov     r1, r11
      0x00006274: 6808    	ldr     r0, [r1, #0]
      0x00006276: 1c32    	mov     r2, r6
      0x00006278: f8d0036c	ldr.w   r0, [r0, #876]
      0x0000627c: f8d0e02c	ldr.w   lr, [r0, #44]
      0x00006280: 47f0    	blx     lr
      suspend point dex PC: 0x0012
      GC map objects:  v0 (r6), v1 (r7), v2 (r8), v3 (r10), v4 (r11), v5 ([sp + #72])
      0x00006282: 3c01    	subs    r4, #1
      0x00006284: f000800f	beq.w   +30 (0x000062a6)
      0x00006288: b009    	add     sp, sp, #36
      0x0000628a: e8bd8de0	pop     {r5, r6, r7, r8, r10, r11, pc}
      0x0000628e: f8d9e150	ldr.w   lr, [r9, #336]  ; pResolveString
      0x00006292: 1c28    	mov     r0, r5
      0x00006294: 215c    	movs    r1, #92
      0x00006296: 47f0    	blx     lr
      suspend point dex PC: 0x0007
      GC map objects:  v0 (r6), v1 (r7), v4 (r11), v5 ([sp + #72])
      0x00006298: e7cc    	b       -104 (0x00006234)
      0x0000629a: f8d9e150	ldr.w   lr, [r9, #336]  ; pResolveString
      0x0000629e: 1c28    	mov     r0, r5
      0x000062a0: 215f    	movs    r1, #95
      0x000062a2: 47f0    	blx     lr
      suspend point dex PC: 0x0009
      GC map objects:  v0 (r6), v1 (r7), v2 (r8), v4 (r11), v5 ([sp + #72])
      0x000062a4: e7cc    	b       -104 (0x00006240)
      0x000062a6: f8d9e230	ldr.w   lr, [r9, #560]  ; pTestSuspend
      0x000062aa: 47f0    	blx     lr
      suspend point dex PC: 0x0015
      0x000062ac: e7ec    	b       -40 (0x00006288)
      0x000062ae: 0000    	lsls    r0, r0, #0
  31: void com.weidian.sample.MainActivity.stopService2(android.view.View) (dex_method_idx=57)
    DEX CODE:
      0x0000: new-instance v0, android.content.Intent // type@5
      0x0002: invoke-direct {v0}, void android.content.Intent.<init>() // method@4
      0x0005: new-instance v1, android.content.ComponentName // type@3
      0x0007: const-string v2, "com.weidian.sample" // string@92
      0x0009: const-string v3, "com.weidian.sample.PluginService2" // string@96
      0x000b: invoke-direct {v1, v2, v3}, void android.content.ComponentName.<init>(java.lang.String, java.lang.String) // method@3
      0x000e: invoke-virtual {v0, v1}, android.content.Intent android.content.Intent.setComponent(android.content.ComponentName) // method@8
      0x0011: const-string v1, "is_remote" // string@133
      0x0013: const/4 v2, #+1
      0x0014: invoke-virtual {v0, v1, v2}, android.content.Intent android.content.Intent.putExtra(java.lang.String, boolean) // method@7
      0x0017: invoke-virtual {v4, v0}, boolean com.weidian.sample.MainActivity.stopService(android.content.Intent) // method@55
      0x001a: return-void
    OatMethodOffsets (offset=0x00002b5c)
      code_offset: 0x000062cd 
      gc_map: (offset=0x00002f72)
    OatQuickMethodHeader (offset=0x000062b0)
      mapping_table: (offset=0x000032c8)
      vmap_table: (offset=0x00003370)
      v65534/r5, v0/r6, v1/r7, v2/r8, v3/r10, v4/r11, v65535/r15
    QuickMethodFrameInfo
      frame_size_in_bytes: 64
      core_spill_mask: 0x00008de0 (r5, r6, r7, r8, r10, r11, r15)
      fp_spill_mask: 0x00000000 
    CODE: (code_offset=0x000062cd size_offset=0x000062c8 size=260)...
      0x000062cc: f5bd5c00	subs    r12, sp, #8192
      0x000062d0: f8dcc000	ldr.w   r12, [r12, #0]
      suspend point dex PC: 0x0000
      GC map objects:  v4 (r11), v5 ([sp + #72])
      0x000062d4: e92d4de0	push    {r5, r6, r7, r8, r10, r11, lr}
      0x000062d8: b089    	sub     sp, sp, #36
      0x000062da: 1c05    	mov     r5, r0
      0x000062dc: 9000    	str     r0, [sp, #0]
      0x000062de: 468b    	mov     r11, r1
      0x000062e0: 9212    	str     r2, [sp, #72]
      0x000062e2: f8d9e12c	ldr.w   lr, [r9, #300]  ; pAllocObjectInitialized
      0x000062e6: 1c29    	mov     r1, r5
      0x000062e8: f64670e8	movw    r0, #28648
      0x000062ec: f2c70048	movt    r0, #28744
      0x000062f0: 47f0    	blx     lr
      suspend point dex PC: 0x0000
      GC map objects:  v4 (r11), v5 ([sp + #72])
      0x000062f2: 1c06    	mov     r6, r0
      0x000062f4: f2442e95	movw    lr, #17045
      0x000062f8: f2c73e06	movt    lr, #29446
      0x000062fc: f24c0038	movw    r0, #49208
      0x00006300: f6c670e1	movt    r0, #28641
      0x00006304: 1c31    	mov     r1, r6
      0x00006306: 47f0    	blx     lr
      suspend point dex PC: 0x0002
      GC map objects:  v0 (r6), v4 (r11), v5 ([sp + #72])
      0x00006308: f8d9e12c	ldr.w   lr, [r9, #300]  ; pAllocObjectInitialized
      0x0000630c: 1c29    	mov     r1, r5
      0x0000630e: f24660f8	movw    r0, #26360
      0x00006312: f2c70048	movt    r0, #28744
      0x00006316: 47f0    	blx     lr
      suspend point dex PC: 0x0005
      GC map objects:  v0 (r6), v4 (r11), v5 ([sp + #72])
      0x00006318: 1c07    	mov     r7, r0
      0x0000631a: 68a8    	ldr     r0, [r5, #8]
      0x0000631c: 6940    	ldr     r0, [r0, #20]
      0x0000631e: f8d0017c	ldr.w   r0, [r0, #380]
      0x00006322: b3f8    	cbz     r0, +126 (0x000063a4)
      0x00006324: 4680    	mov     r8, r0
      0x00006326: 68a8    	ldr     r0, [r5, #8]
      0x00006328: 6940    	ldr     r0, [r0, #20]
      0x0000632a: f8d0018c	ldr.w   r0, [r0, #396]
      0x0000632e: b3f8    	cbz     r0, +126 (0x000063b0)
      0x00006330: 4682    	mov     r10, r0
      0x00006332: f6423e25	movw    lr, #11045
      0x00006336: f2c73e04	movt    lr, #29444
      0x0000633a: f24a2038	movw    r0, #41528
      0x0000633e: f6c670e1	movt    r0, #28641
      0x00006342: 1c39    	mov     r1, r7
      0x00006344: 4642    	mov     r2, r8
      0x00006346: 4653    	mov     r3, r10
      0x00006348: 47f0    	blx     lr
      suspend point dex PC: 0x000b
      GC map objects:  v0 (r6), v1 (r7), v2 (r8), v3 (r10), v4 (r11), v5 ([sp + #72])
      0x0000634a: f24b0e55	movw    lr, #45141
      0x0000634e: f2c72e3a	movt    lr, #29242
      0x00006352: f64d10b8	movw    r0, #55736
      0x00006356: f6c670e1	movt    r0, #28641
      0x0000635a: 1c31    	mov     r1, r6
      0x0000635c: 1c3a    	mov     r2, r7
      0x0000635e: 47f0    	blx     lr
      suspend point dex PC: 0x000e
      GC map objects:  v0 (r6), v1 (r7), v2 (r8), v3 (r10), v4 (r11), v5 ([sp + #72])
      0x00006360: 68a8    	ldr     r0, [r5, #8]
      0x00006362: 6940    	ldr     r0, [r0, #20]
      0x00006364: f8d00220	ldr.w   r0, [r0, #544]
      0x00006368: b340    	cbz     r0, +80 (0x000063bc)
      0x0000636a: 1c07    	mov     r7, r0
      0x0000636c: f04f0801	mov.w   r8, #1
      0x00006370: f24b0ee5	movw    lr, #45285
      0x00006374: f2c73e06	movt    lr, #29446
      0x00006378: f24d3028	movw    r0, #54056
      0x0000637c: f6c670e1	movt    r0, #28641
      0x00006380: 1c31    	mov     r1, r6
      0x00006382: 1c3a    	mov     r2, r7
      0x00006384: 4643    	mov     r3, r8
      0x00006386: 47f0    	blx     lr
      suspend point dex PC: 0x0014
      GC map objects:  v0 (r6), v1 (r7), v3 (r10), v4 (r11), v5 ([sp + #72])
      0x00006388: 4659    	mov     r1, r11
      0x0000638a: 6808    	ldr     r0, [r1, #0]
      0x0000638c: 1c32    	mov     r2, r6
      0x0000638e: f8d0036c	ldr.w   r0, [r0, #876]
      0x00006392: f8d0e02c	ldr.w   lr, [r0, #44]
      0x00006396: 47f0    	blx     lr
      suspend point dex PC: 0x0017
      GC map objects:  v0 (r6), v1 (r7), v3 (r10), v4 (r11), v5 ([sp + #72])
      0x00006398: 3c01    	subs    r4, #1
      0x0000639a: f0008015	beq.w   +42 (0x000063c8)
      0x0000639e: b009    	add     sp, sp, #36
      0x000063a0: e8bd8de0	pop     {r5, r6, r7, r8, r10, r11, pc}
      0x000063a4: f8d9e150	ldr.w   lr, [r9, #336]  ; pResolveString
      0x000063a8: 1c28    	mov     r0, r5
      0x000063aa: 215c    	movs    r1, #92
      0x000063ac: 47f0    	blx     lr
      suspend point dex PC: 0x0007
      GC map objects:  v0 (r6), v1 (r7), v4 (r11), v5 ([sp + #72])
      0x000063ae: e7b9    	b       -142 (0x00006324)
      0x000063b0: f8d9e150	ldr.w   lr, [r9, #336]  ; pResolveString
      0x000063b4: 1c28    	mov     r0, r5
      0x000063b6: 2160    	movs    r1, #96
      0x000063b8: 47f0    	blx     lr
      suspend point dex PC: 0x0009
      GC map objects:  v0 (r6), v1 (r7), v2 (r8), v4 (r11), v5 ([sp + #72])
      0x000063ba: e7b9    	b       -142 (0x00006330)
      0x000063bc: f8d9e150	ldr.w   lr, [r9, #336]  ; pResolveString
      0x000063c0: 1c28    	mov     r0, r5
      0x000063c2: 2185    	movs    r1, #133
      0x000063c4: 47f0    	blx     lr
      suspend point dex PC: 0x0011
      GC map objects:  v0 (r6), v1 (r7), v2 (r8), v3 (r10), v4 (r11), v5 ([sp + #72])
      0x000063c6: e7d0    	b       -96 (0x0000636a)
      0x000063c8: f8d9e230	ldr.w   lr, [r9, #560]  ; pTestSuspend
      0x000063cc: 47f0    	blx     lr
      suspend point dex PC: 0x001a
      0x000063ce: e7e6    	b       -52 (0x0000639e)
  32: void com.weidian.sample.MainActivity.test(android.view.View) (dex_method_idx=58)
    DEX CODE:
      0x0000: const-string v0, "TAG" // string@67
      0x0002: new-instance v1, java.lang.StringBuilder // type@44
      0x0004: invoke-direct {v1}, void java.lang.StringBuilder.<init>() // method@95
      0x0007: const-string v2, "patch patch " // string@153
      0x0009: invoke-virtual {v1, v2}, java.lang.StringBuilder java.lang.StringBuilder.append(java.lang.String) // method@97
      0x000c: move-result-object v1
      0x000d: invoke-static {}, java.lang.String com.weidian.sample.Test.getName() // method@71
      0x0010: move-result-object v2
      0x0011: invoke-virtual {v1, v2}, java.lang.StringBuilder java.lang.StringBuilder.append(java.lang.String) // method@97
      0x0014: move-result-object v1
      0x0015: invoke-virtual {v1}, java.lang.String java.lang.StringBuilder.toString() // method@98
      0x0018: move-result-object v1
      0x0019: invoke-static {v0, v1}, int android.util.Log.d(java.lang.String, java.lang.String) // method@13
      0x001c: invoke-direct {v3}, void com.weidian.sample.MainActivity.method1() // method@37
      0x001f: invoke-direct {v3}, void com.weidian.sample.MainActivity.method2() // method@38
      0x0022: invoke-direct {v3}, void com.weidian.sample.MainActivity.method3() // method@39
      0x0025: invoke-direct {v3}, void com.weidian.sample.MainActivity.method4() // method@40
      0x0028: invoke-direct {v3}, void com.weidian.sample.MainActivity.method5() // method@41
      0x002b: return-void
    OatMethodOffsets (offset=0x00002b60)
      code_offset: 0x000063ed 
      gc_map: (offset=0x00002f9a)
    OatQuickMethodHeader (offset=0x000063d0)
      mapping_table: (offset=0x000032e2)
      vmap_table: (offset=0x0000339f)
      v65534/r5, v1/r6, v3/r7, v2/r8, v0/r10, v65535/r15
    QuickMethodFrameInfo
      frame_size_in_bytes: 64
      core_spill_mask: 0x000085e0 (r5, r6, r7, r8, r10, r15)
      fp_spill_mask: 0x00000000 
    CODE: (code_offset=0x000063ed size_offset=0x000063e8 size=324)...
      0x000063ec: f5bd5c00	subs    r12, sp, #8192
      0x000063f0: f8dcc000	ldr.w   r12, [r12, #0]
      suspend point dex PC: 0x0000
      GC map objects:  v3 (r7), v4 ([sp + #72])
      0x000063f4: e92d45e0	push    {r5, r6, r7, r8, r10, lr}
      0x000063f8: b08a    	sub     sp, sp, #40
      0x000063fa: 1c05    	mov     r5, r0
      0x000063fc: 9000    	str     r0, [sp, #0]
      0x000063fe: 1c0f    	mov     r7, r1
      0x00006400: 9212    	str     r2, [sp, #72]
      0x00006402: 68a8    	ldr     r0, [r5, #8]
      0x00006404: 6940    	ldr     r0, [r0, #20]
      0x00006406: f8d00118	ldr.w   r0, [r0, #280]
      0x0000640a: 2800    	cmp     r0, #0
      0x0000640c: d07f    	beq     +254 (0x0000650e)
      0x0000640e: f8d9e12c	ldr.w   lr, [r9, #300]  ; pAllocObjectInitialized
      0x00006412: 4682    	mov     r10, r0
      0x00006414: 1c29    	mov     r1, r5
      0x00006416: f24010e0	movw    r0, #480
      0x0000641a: f2c70040	movt    r0, #28736
      0x0000641e: 47f0    	blx     lr
      suspend point dex PC: 0x0002
      GC map objects:  v0 (r10), v3 (r7), v4 ([sp + #72])
      0x00006420: 1c06    	mov     r6, r0
      0x00006422: f64f6e9d	movw    lr, #65181
      0x00006426: f2c72e0e	movt    lr, #29198
      0x0000642a: f64f5038	movw    r0, #64824
      0x0000642e: f6c670d4	movt    r0, #28628
      0x00006432: 1c31    	mov     r1, r6
      0x00006434: 47f0    	blx     lr
      suspend point dex PC: 0x0004
      GC map objects:  v0 (r10), v1 (r6), v3 (r7), v4 ([sp + #72])
      0x00006436: 68a8    	ldr     r0, [r5, #8]
      0x00006438: 6940    	ldr     r0, [r0, #20]
      0x0000643a: f8d00270	ldr.w   r0, [r0, #624]
      0x0000643e: 2800    	cmp     r0, #0
      0x00006440: d06b    	beq     +214 (0x0000651a)
      0x00006442: 4680    	mov     r8, r0
      0x00006444: f6424e4d	movw    lr, #11341
      0x00006448: f2c72e0f	movt    lr, #29199
      0x0000644c: f2401028	movw    r0, #296
      0x00006450: f6c670d5	movt    r0, #28629
      0x00006454: 1c31    	mov     r1, r6
      0x00006456: 4642    	mov     r2, r8
      0x00006458: 47f0    	blx     lr
      suspend point dex PC: 0x0009
      GC map objects:  v0 (r10), v1 (r6), v2 (r8), v3 (r7), v4 ([sp + #72])
      0x0000645a: f8d9e224	ldr.w   lr, [r9, #548]  ; pInvokeStaticTrampolineWithAccessCheck
      0x0000645e: 1c06    	mov     r6, r0
      0x00006460: 2047    	movs    r0, #71
      0x00006462: 47f0    	blx     lr
      suspend point dex PC: 0x000d
      GC map objects:  v0 (r10), v1 (r6), v2 (r8), v3 (r7), v4 ([sp + #72])
      0x00006464: 4680    	mov     r8, r0
      0x00006466: f6424e4d	movw    lr, #11341
      0x0000646a: f2c72e0f	movt    lr, #29199
      0x0000646e: f2401028	movw    r0, #296
      0x00006472: f6c670d5	movt    r0, #28629
      0x00006476: 1c31    	mov     r1, r6
      0x00006478: 4642    	mov     r2, r8
      0x0000647a: f8d1c000	ldr.w   r12, [r1, #0]
      suspend point dex PC: 0x0011
      GC map objects:  v0 (r10), v1 (r6), v2 (r8), v3 (r7), v4 ([sp + #72])
      0x0000647e: 47f0    	blx     lr
      suspend point dex PC: 0x0011
      GC map objects:  v0 (r10), v1 (r6), v2 (r8), v3 (r7), v4 ([sp + #72])
      0x00006480: 1c06    	mov     r6, r0
      0x00006482: f6433edd	movw    lr, #15325
      0x00006486: f2c72e0f	movt    lr, #29199
      0x0000648a: f64f7078	movw    r0, #65400
      0x0000648e: f6c670d4	movt    r0, #28628
      0x00006492: 1c31    	mov     r1, r6
      0x00006494: f8d1c000	ldr.w   r12, [r1, #0]
      suspend point dex PC: 0x0015
      GC map objects:  v0 (r10), v1 (r6), v2 (r8), v3 (r7), v4 ([sp + #72])
      0x00006498: 47f0    	blx     lr
      suspend point dex PC: 0x0015
      GC map objects:  v0 (r10), v1 (r6), v2 (r8), v3 (r7), v4 ([sp + #72])
      0x0000649a: 1c06    	mov     r6, r0
      0x0000649c: f24a5e5d	movw    lr, #42333
      0x000064a0: f2c73e25	movt    lr, #29477
      0x000064a4: f2457088	movw    r0, #22408
      0x000064a8: f6c670e8	movt    r0, #28648
      0x000064ac: 4651    	mov     r1, r10
      0x000064ae: 1c32    	mov     r2, r6
      0x000064b0: 47f0    	blx     lr
      suspend point dex PC: 0x0019
      GC map objects:  v0 (r10), v1 (r6), v2 (r8), v3 (r7), v4 ([sp + #72])
      0x000064b2: 1c28    	mov     r0, r5
      0x000064b4: 68c0    	ldr     r0, [r0, #12]
      0x000064b6: 1c39    	mov     r1, r7
      0x000064b8: f8d000a0	ldr.w   r0, [r0, #160]
      0x000064bc: f8d0e02c	ldr.w   lr, [r0, #44]
      0x000064c0: 47f0    	blx     lr
      suspend point dex PC: 0x001c
      GC map objects:  v0 (r10), v1 (r6), v2 (r8), v3 (r7), v4 ([sp + #72])
      0x000064c2: 1c28    	mov     r0, r5
      0x000064c4: 68c0    	ldr     r0, [r0, #12]
      0x000064c6: 1c39    	mov     r1, r7
      0x000064c8: f8d000a4	ldr.w   r0, [r0, #164]
      0x000064cc: f8d0e02c	ldr.w   lr, [r0, #44]
      0x000064d0: 47f0    	blx     lr
      suspend point dex PC: 0x001f
      GC map objects:  v0 (r10), v1 (r6), v2 (r8), v3 (r7), v4 ([sp + #72])
      0x000064d2: 1c28    	mov     r0, r5
      0x000064d4: 68c0    	ldr     r0, [r0, #12]
      0x000064d6: 1c39    	mov     r1, r7
      0x000064d8: f8d000a8	ldr.w   r0, [r0, #168]
      0x000064dc: f8d0e02c	ldr.w   lr, [r0, #44]
      0x000064e0: 47f0    	blx     lr
      suspend point dex PC: 0x0022
      GC map objects:  v0 (r10), v1 (r6), v2 (r8), v3 (r7), v4 ([sp + #72])
      0x000064e2: 1c28    	mov     r0, r5
      0x000064e4: 68c0    	ldr     r0, [r0, #12]
      0x000064e6: 1c39    	mov     r1, r7
      0x000064e8: f8d000ac	ldr.w   r0, [r0, #172]
      0x000064ec: f8d0e02c	ldr.w   lr, [r0, #44]
      0x000064f0: 47f0    	blx     lr
      suspend point dex PC: 0x0025
      GC map objects:  v0 (r10), v1 (r6), v2 (r8), v3 (r7), v4 ([sp + #72])
      0x000064f2: 1c28    	mov     r0, r5
      0x000064f4: 68c0    	ldr     r0, [r0, #12]
      0x000064f6: 1c39    	mov     r1, r7
      0x000064f8: f8d000b0	ldr.w   r0, [r0, #176]
      0x000064fc: f8d0e02c	ldr.w   lr, [r0, #44]
      0x00006500: 47f0    	blx     lr
      suspend point dex PC: 0x0028
      GC map objects:  v0 (r10), v1 (r6), v2 (r8), v3 (r7), v4 ([sp + #72])
      0x00006502: 3c01    	subs    r4, #1
      0x00006504: f000800f	beq.w   +30 (0x00006526)
      0x00006508: b00a    	add     sp, sp, #40
      0x0000650a: e8bd85e0	pop     {r5, r6, r7, r8, r10, pc}
      0x0000650e: f8d9e150	ldr.w   lr, [r9, #336]  ; pResolveString
      0x00006512: 1c28    	mov     r0, r5
      0x00006514: 2143    	movs    r1, #67
      0x00006516: 47f0    	blx     lr
      suspend point dex PC: 0x0000
      GC map objects:  v3 (r7), v4 ([sp + #72])
      0x00006518: e779    	b       -270 (0x0000640e)
      0x0000651a: f8d9e150	ldr.w   lr, [r9, #336]  ; pResolveString
      0x0000651e: 1c28    	mov     r0, r5
      0x00006520: 2199    	movs    r1, #153
      0x00006522: 47f0    	blx     lr
      suspend point dex PC: 0x0007
      GC map objects:  v0 (r10), v1 (r6), v3 (r7), v4 ([sp + #72])
      0x00006524: e78d    	b       -230 (0x00006442)
      0x00006526: f8d9e230	ldr.w   lr, [r9, #560]  ; pTestSuspend
      0x0000652a: 47f0    	blx     lr
      suspend point dex PC: 0x002b
      0x0000652c: e7ec    	b       -40 (0x00006508)
      0x0000652e: 0000    	lsls    r0, r0, #0
  33: void com.weidian.sample.MainActivity.unbindService1(android.view.View) (dex_method_idx=69)
    DEX CODE:
      0x0000: iget-object v0, v1, Landroid/content/ServiceConnection; com.weidian.sample.MainActivity.conn // field@2
      0x0002: invoke-virtual {v1, v0}, void com.weidian.sample.MainActivity.unbindService(android.content.ServiceConnection) // method@68
      0x0005: return-void
    OatMethodOffsets (offset=0x00002b64)
      code_offset: 0x0000654d 
      gc_map: (offset=0x00002fd4)
    OatQuickMethodHeader (offset=0x00006530)
      mapping_table: (offset=0x00003308)
      vmap_table: (offset=0x00003394)
      v1/r5, v0/r6, v65534/r7, v65535/r15
    QuickMethodFrameInfo
      frame_size_in_bytes: 48
      core_spill_mask: 0x000080e0 (r5, r6, r7, r15)
      fp_spill_mask: 0x00000000 
    CODE: (code_offset=0x0000654d size_offset=0x00006548 size=64)...
      0x0000654c: f5bd5c00	subs    r12, sp, #8192
      0x00006550: f8dcc000	ldr.w   r12, [r12, #0]
      suspend point dex PC: 0x0000
      GC map objects:  v1 (r5), v2 ([sp + #56])
      0x00006554: e92d40e0	push    {r5, r6, r7, lr}
      0x00006558: b088    	sub     sp, sp, #32
      0x0000655a: 1c07    	mov     r7, r0
      0x0000655c: 9000    	str     r0, [sp, #0]
      0x0000655e: 1c0d    	mov     r5, r1
      0x00006560: 920e    	str     r2, [sp, #56]
      0x00006562: f8d56108	ldr.w   r6, [r5, #264]
      0x00006566: 1c29    	mov     r1, r5
      0x00006568: 6808    	ldr     r0, [r1, #0]
      0x0000656a: 1c32    	mov     r2, r6
      0x0000656c: f8d00374	ldr.w   r0, [r0, #884]
      0x00006570: f8d0e02c	ldr.w   lr, [r0, #44]
      0x00006574: 47f0    	blx     lr
      suspend point dex PC: 0x0002
      GC map objects:  v0 (r6), v1 (r5), v2 ([sp + #56])
      0x00006576: 3c01    	subs    r4, #1
      0x00006578: f0008003	beq.w   +6 (0x00006582)
      0x0000657c: b008    	add     sp, sp, #32
      0x0000657e: e8bd80e0	pop     {r5, r6, r7, pc}
      0x00006582: f8d9e230	ldr.w   lr, [r9, #560]  ; pTestSuspend
      0x00006586: 47f0    	blx     lr
      suspend point dex PC: 0x0005
      0x00006588: e7f8    	b       -16 (0x0000657c)
      0x0000658a: 0000    	lsls    r0, r0, #0
